Archive member included because of file (symbol)

/usr/local/lpcxpresso_7.8.0_426/lpcxpresso/tools/bin/../lib/gcc/arm-none-eabi/4.9.3/../../../../arm-none-eabi/lib/libcr_c.a(memcpy.o)
                              ./src/Anybus.o (memcpy)
/usr/local/lpcxpresso_7.8.0_426/lpcxpresso/tools/bin/../lib/gcc/arm-none-eabi/4.9.3/../../../../arm-none-eabi/lib/libcr_c.a(memset.o)
                              ./src/Anybus.o (memset)
/usr/local/lpcxpresso_7.8.0_426/lpcxpresso/tools/bin/../lib/gcc/arm-none-eabi/4.9.3/../../../../arm-none-eabi/lib/libcr_c.a(alloc.o)
                              ./src/az4186_files.o (malloc)
/usr/local/lpcxpresso_7.8.0_426/lpcxpresso/tools/bin/../lib/gcc/arm-none-eabi/4.9.3/../../../../arm-none-eabi/lib/libcr_c.a(ctype.o)
                              ./src/az4186_eeprom_24c04.o (toupper)
/usr/local/lpcxpresso_7.8.0_426/lpcxpresso/tools/bin/../lib/gcc/arm-none-eabi/4.9.3/../../../../arm-none-eabi/lib/libcr_c.a(fabs.o)
                              ./src/popup.o (fabs)
/usr/local/lpcxpresso_7.8.0_426/lpcxpresso/tools/bin/../lib/gcc/arm-none-eabi/4.9.3/../../../../arm-none-eabi/lib/libcr_c.a(fpprintf.o)
                              ./src/Anybus.o (sprintf)
/usr/local/lpcxpresso_7.8.0_426/lpcxpresso/tools/bin/../lib/gcc/arm-none-eabi/4.9.3/../../../../arm-none-eabi/lib/libcr_c.a(memcmp.o)
                              ./src/az4186_program_codes.o (memcmp)
/usr/local/lpcxpresso_7.8.0_426/lpcxpresso/tools/bin/../lib/gcc/arm-none-eabi/4.9.3/../../../../arm-none-eabi/lib/libcr_c.a(printf.o)
                              /usr/local/lpcxpresso_7.8.0_426/lpcxpresso/tools/bin/../lib/gcc/arm-none-eabi/4.9.3/../../../../arm-none-eabi/lib/libcr_c.a(fpprintf.o) (__vfprintf)
/usr/local/lpcxpresso_7.8.0_426/lpcxpresso/tools/bin/../lib/gcc/arm-none-eabi/4.9.3/../../../../arm-none-eabi/lib/libcr_c.a(scanf.o)
                              ./src/params.o (sscanf)
/usr/local/lpcxpresso_7.8.0_426/lpcxpresso/tools/bin/../lib/gcc/arm-none-eabi/4.9.3/../../../../arm-none-eabi/lib/libcr_c.a(stdio.o)
                              /usr/local/lpcxpresso_7.8.0_426/lpcxpresso/tools/bin/../lib/gcc/arm-none-eabi/4.9.3/../../../../arm-none-eabi/lib/libcr_c.a(fpprintf.o) (__Ciob)
/usr/local/lpcxpresso_7.8.0_426/lpcxpresso/tools/bin/../lib/gcc/arm-none-eabi/4.9.3/../../../../arm-none-eabi/lib/libcr_c.a(stdlib.o)
                              ./src/az4186_emc.o (rand)
/usr/local/lpcxpresso_7.8.0_426/lpcxpresso/tools/bin/../lib/gcc/arm-none-eabi/4.9.3/../../../../arm-none-eabi/lib/libcr_c.a(strcat.o)
                              ./src/Anybus.o (strcat)
/usr/local/lpcxpresso_7.8.0_426/lpcxpresso/tools/bin/../lib/gcc/arm-none-eabi/4.9.3/../../../../arm-none-eabi/lib/libcr_c.a(strchr.o)
                              ./src/Anybus.o (strchr)
/usr/local/lpcxpresso_7.8.0_426/lpcxpresso/tools/bin/../lib/gcc/arm-none-eabi/4.9.3/../../../../arm-none-eabi/lib/libcr_c.a(strcmp.o)
                              ./src/az4186_eeprom_24c04.o (strcmp)
/usr/local/lpcxpresso_7.8.0_426/lpcxpresso/tools/bin/../lib/gcc/arm-none-eabi/4.9.3/../../../../arm-none-eabi/lib/libcr_c.a(strcpy.o)
                              ./src/Anybus.o (strcpy)
/usr/local/lpcxpresso_7.8.0_426/lpcxpresso/tools/bin/../lib/gcc/arm-none-eabi/4.9.3/../../../../arm-none-eabi/lib/libcr_c.a(strlen.o)
                              ./src/Anybus.o (strlen)
/usr/local/lpcxpresso_7.8.0_426/lpcxpresso/tools/bin/../lib/gcc/arm-none-eabi/4.9.3/../../../../arm-none-eabi/lib/libcr_c.a(strncat.o)
                              ./src/Anybus.o (strncat)
/usr/local/lpcxpresso_7.8.0_426/lpcxpresso/tools/bin/../lib/gcc/arm-none-eabi/4.9.3/../../../../arm-none-eabi/lib/libcr_c.a(strncmp.o)
                              ./src/Anybus.o (strncmp)
/usr/local/lpcxpresso_7.8.0_426/lpcxpresso/tools/bin/../lib/gcc/arm-none-eabi/4.9.3/../../../../arm-none-eabi/lib/libcr_c.a(strncpy.o)
                              ./src/Anybus.o (strncpy)
/usr/local/lpcxpresso_7.8.0_426/lpcxpresso/tools/bin/../lib/gcc/arm-none-eabi/4.9.3/../../../../arm-none-eabi/lib/libcr_c.a(strstr.o)
                              ./src/Anybus.o (strstr)
/usr/local/lpcxpresso_7.8.0_426/lpcxpresso/tools/bin/../lib/gcc/arm-none-eabi/4.9.3/../../../../arm-none-eabi/lib/libcr_c.a(ungetc.o)
                              /usr/local/lpcxpresso_7.8.0_426/lpcxpresso/tools/bin/../lib/gcc/arm-none-eabi/4.9.3/../../../../arm-none-eabi/lib/libcr_c.a(scanf.o) (ungetc)
/usr/local/lpcxpresso_7.8.0_426/lpcxpresso/tools/bin/../lib/gcc/arm-none-eabi/4.9.3/../../../../arm-none-eabi/lib/libcr_c.a(__fillbuf.o)
                              /usr/local/lpcxpresso_7.8.0_426/lpcxpresso/tools/bin/../lib/gcc/arm-none-eabi/4.9.3/../../../../arm-none-eabi/lib/libcr_c.a(scanf.o) (__filbuf)
/usr/local/lpcxpresso_7.8.0_426/lpcxpresso/tools/bin/../lib/gcc/arm-none-eabi/4.9.3/../../../../arm-none-eabi/lib/libcr_c.a(__init_alloc.o)
                              /usr/local/lpcxpresso_7.8.0_426/lpcxpresso/tools/bin/../lib/gcc/arm-none-eabi/4.9.3/../../../../arm-none-eabi/lib/libcr_c.a(alloc.o) (__heaps)
/usr/local/lpcxpresso_7.8.0_426/lpcxpresso/tools/bin/../lib/gcc/arm-none-eabi/4.9.3/../../../../arm-none-eabi/lib/libcr_c.a(_cr_sbrk.o)
                              /usr/local/lpcxpresso_7.8.0_426/lpcxpresso/tools/bin/../lib/gcc/arm-none-eabi/4.9.3/../../../../arm-none-eabi/lib/libcr_c.a(alloc.o) (_sbrk)
/usr/local/lpcxpresso_7.8.0_426/lpcxpresso/tools/bin/../lib/gcc/arm-none-eabi/4.9.3/../../../../arm-none-eabi/lib/libcr_c.a(_deferredlazyseek.o)
                              /usr/local/lpcxpresso_7.8.0_426/lpcxpresso/tools/bin/../lib/gcc/arm-none-eabi/4.9.3/../../../../arm-none-eabi/lib/libcr_c.a(__fillbuf.o) (_deferredlazyseek)
/usr/local/lpcxpresso_7.8.0_426/lpcxpresso/tools/bin/../lib/gcc/arm-none-eabi/4.9.3/../../../../arm-none-eabi/lib/libcr_c.a(_fflush.o)
                              /usr/local/lpcxpresso_7.8.0_426/lpcxpresso/tools/bin/../lib/gcc/arm-none-eabi/4.9.3/../../../../arm-none-eabi/lib/libcr_c.a(__fillbuf.o) (_fflush)
/usr/local/lpcxpresso_7.8.0_426/lpcxpresso/tools/bin/../lib/gcc/arm-none-eabi/4.9.3/../../../../arm-none-eabi/lib/libcr_c.a(_frexpl.o)
                              /usr/local/lpcxpresso_7.8.0_426/lpcxpresso/tools/bin/../lib/gcc/arm-none-eabi/4.9.3/../../../../arm-none-eabi/lib/libcr_c.a(fpprintf.o) (_frexpl)
/usr/local/lpcxpresso_7.8.0_426/lpcxpresso/tools/bin/../lib/gcc/arm-none-eabi/4.9.3/../../../../arm-none-eabi/lib/libcr_c.a(_hugeval.o)
                              /usr/local/lpcxpresso_7.8.0_426/lpcxpresso/tools/bin/../lib/gcc/arm-none-eabi/4.9.3/../../../../arm-none-eabi/lib/libcr_c.a(scanf.o) (__huge_vall)
/usr/local/lpcxpresso_7.8.0_426/lpcxpresso/tools/bin/../lib/gcc/arm-none-eabi/4.9.3/../../../../arm-none-eabi/lib/libcr_c.a(_ldexpl.o)
                              /usr/local/lpcxpresso_7.8.0_426/lpcxpresso/tools/bin/../lib/gcc/arm-none-eabi/4.9.3/../../../../arm-none-eabi/lib/libcr_c.a(fpprintf.o) (_ldexpl)
/usr/local/lpcxpresso_7.8.0_426/lpcxpresso/tools/bin/../lib/gcc/arm-none-eabi/4.9.3/../../../../arm-none-eabi/lib/libcr_c.a(_writebuf.o)
                              /usr/local/lpcxpresso_7.8.0_426/lpcxpresso/tools/bin/../lib/gcc/arm-none-eabi/4.9.3/../../../../arm-none-eabi/lib/libcr_c.a(_deferredlazyseek.o) (_Cwritebuf)
/usr/local/lpcxpresso_7.8.0_426/lpcxpresso/tools/bin/../lib/gcc/arm-none-eabi/4.9.3/../../../../arm-none-eabi/lib/libcr_c.a(errno.o)
                              /usr/local/lpcxpresso_7.8.0_426/lpcxpresso/tools/bin/../lib/gcc/arm-none-eabi/4.9.3/../../../../arm-none-eabi/lib/libcr_c.a(scanf.o) (errno)
/usr/local/lpcxpresso_7.8.0_426/lpcxpresso/tools/bin/../lib/gcc/arm-none-eabi/4.9.3/../../../../arm-none-eabi/lib/libcr_c.a(fseek.o)
                              /usr/local/lpcxpresso_7.8.0_426/lpcxpresso/tools/bin/../lib/gcc/arm-none-eabi/4.9.3/../../../../arm-none-eabi/lib/libcr_c.a(_deferredlazyseek.o) (fseek)
/usr/local/lpcxpresso_7.8.0_426/lpcxpresso/tools/bin/../lib/gcc/arm-none-eabi/4.9.3/../../../../arm-none-eabi/lib/libcr_c.a(ftell.o)
                              /usr/local/lpcxpresso_7.8.0_426/lpcxpresso/tools/bin/../lib/gcc/arm-none-eabi/4.9.3/../../../../arm-none-eabi/lib/libcr_c.a(fseek.o) (ftell)
/usr/local/lpcxpresso_7.8.0_426/lpcxpresso/tools/bin/../lib/gcc/arm-none-eabi/4.9.3/../../../../arm-none-eabi/lib/libcr_c.a(initio.o)
                              /usr/local/lpcxpresso_7.8.0_426/lpcxpresso/tools/bin/../lib/gcc/arm-none-eabi/4.9.3/../../../../arm-none-eabi/lib/libcr_c.a(stdlib.o) (_terminateio)
/usr/local/lpcxpresso_7.8.0_426/lpcxpresso/tools/bin/../lib/gcc/arm-none-eabi/4.9.3/../../../../arm-none-eabi/lib/libcr_c.a(raise.o)
                              /usr/local/lpcxpresso_7.8.0_426/lpcxpresso/tools/bin/../lib/gcc/arm-none-eabi/4.9.3/../../../../arm-none-eabi/lib/libcr_c.a(stdlib.o) (raise)
/usr/local/lpcxpresso_7.8.0_426/lpcxpresso/tools/bin/../lib/gcc/arm-none-eabi/4.9.3/../../../../arm-none-eabi/lib/libcr_c.a(setvbuf.o)
                              /usr/local/lpcxpresso_7.8.0_426/lpcxpresso/tools/bin/../lib/gcc/arm-none-eabi/4.9.3/../../../../arm-none-eabi/lib/libcr_c.a(initio.o) (setvbuf)
/usr/local/lpcxpresso_7.8.0_426/lpcxpresso/tools/bin/../lib/gcc/arm-none-eabi/4.9.3/../../../../arm-none-eabi/lib/libcr_c.a(_cr_check_heap.o)
                              /usr/local/lpcxpresso_7.8.0_426/lpcxpresso/tools/bin/../lib/gcc/arm-none-eabi/4.9.3/../../../../arm-none-eabi/lib/libcr_c.a(_cr_sbrk.o) (__check_heap_overflow)
/usr/local/lpcxpresso_7.8.0_426/lpcxpresso/tools/bin/../lib/gcc/arm-none-eabi/4.9.3/../../../../arm-none-eabi/lib/libcr_c.a(_fdopen.o)
                              /usr/local/lpcxpresso_7.8.0_426/lpcxpresso/tools/bin/../lib/gcc/arm-none-eabi/4.9.3/../../../../arm-none-eabi/lib/libcr_c.a(initio.o) (_fdopen)
/usr/local/lpcxpresso_7.8.0_426/lpcxpresso/tools/bin/../lib/gcc/arm-none-eabi/4.9.3/../../../../arm-none-eabi/lib/libcr_c.a(fclose.o)
                              /usr/local/lpcxpresso_7.8.0_426/lpcxpresso/tools/bin/../lib/gcc/arm-none-eabi/4.9.3/../../../../arm-none-eabi/lib/libcr_c.a(initio.o) (fclose)
/usr/local/lpcxpresso_7.8.0_426/lpcxpresso/tools/bin/../lib/gcc/arm-none-eabi/4.9.3/../../../../arm-none-eabi/lib/libcr_c.a(fflush.o)
                              /usr/local/lpcxpresso_7.8.0_426/lpcxpresso/tools/bin/../lib/gcc/arm-none-eabi/4.9.3/../../../../arm-none-eabi/lib/libcr_c.a(fclose.o) (fflush)
/usr/local/lpcxpresso_7.8.0_426/lpcxpresso/tools/bin/../lib/gcc/arm-none-eabi/4.9.3/../../../../arm-none-eabi/lib/libcr_c.a(remove.o)
                              /usr/local/lpcxpresso_7.8.0_426/lpcxpresso/tools/bin/../lib/gcc/arm-none-eabi/4.9.3/../../../../arm-none-eabi/lib/libcr_c.a(fclose.o) (remove)
/usr/local/lpcxpresso_7.8.0_426/lpcxpresso/tools/bin/../lib/gcc/arm-none-eabi/4.9.3/../../../../arm-none-eabi/lib/libcr_c.a(_do_fflush.o)
                              /usr/local/lpcxpresso_7.8.0_426/lpcxpresso/tools/bin/../lib/gcc/arm-none-eabi/4.9.3/../../../../arm-none-eabi/lib/libcr_c.a(fflush.o) (_do_fflush)
/usr/local/lpcxpresso_7.8.0_426/lpcxpresso/tools/bin/../lib/gcc/arm-none-eabi/4.9.3/libcr_eabihelpers.a(double.o)
                              ./src/az4186_can.o (__aeabi_dmul)
/usr/local/lpcxpresso_7.8.0_426/lpcxpresso/tools/bin/../lib/gcc/arm-none-eabi/4.9.3/libcr_eabihelpers.a(float.o)
                              ./src/az4186_temperature_compensation.o (__aeabi_fmul)
/usr/local/lpcxpresso_7.8.0_426/lpcxpresso/tools/bin/../lib/gcc/arm-none-eabi/4.9.3/libcr_eabihelpers.a(helpers.o)
                              ./src/spimis.o (__aeabi_idivmod)
/usr/local/lpcxpresso_7.8.0_426/lpcxpresso/tools/bin/../lib/gcc/arm-none-eabi/4.9.3/libcr_eabihelpers.a(rtlib.o)
                              /usr/local/lpcxpresso_7.8.0_426/lpcxpresso/tools/bin/../lib/gcc/arm-none-eabi/4.9.3/libcr_eabihelpers.a(helpers.o) (__bhs_uidivmod)
/usr/local/lpcxpresso_7.8.0_426/lpcxpresso/tools/bin/../lib/gcc/arm-none-eabi/4.9.3/../../../../arm-none-eabi/lib/libcr_nohost.a(__sys_appexit.o)
                              /usr/local/lpcxpresso_7.8.0_426/lpcxpresso/tools/bin/../lib/gcc/arm-none-eabi/4.9.3/../../../../arm-none-eabi/lib/libcr_c.a(alloc.o) (__sys_appexit)
/usr/local/lpcxpresso_7.8.0_426/lpcxpresso/tools/bin/../lib/gcc/arm-none-eabi/4.9.3/../../../../arm-none-eabi/lib/libcr_nohost.a(__sys_close.o)
                              /usr/local/lpcxpresso_7.8.0_426/lpcxpresso/tools/bin/../lib/gcc/arm-none-eabi/4.9.3/../../../../arm-none-eabi/lib/libcr_c.a(fclose.o) (__sys_close)
/usr/local/lpcxpresso_7.8.0_426/lpcxpresso/tools/bin/../lib/gcc/arm-none-eabi/4.9.3/../../../../arm-none-eabi/lib/libcr_nohost.a(__sys_flen.o)
                              /usr/local/lpcxpresso_7.8.0_426/lpcxpresso/tools/bin/../lib/gcc/arm-none-eabi/4.9.3/../../../../arm-none-eabi/lib/libcr_c.a(_writebuf.o) (__sys_flen)
/usr/local/lpcxpresso_7.8.0_426/lpcxpresso/tools/bin/../lib/gcc/arm-none-eabi/4.9.3/../../../../arm-none-eabi/lib/libcr_nohost.a(__sys_istty.o)
                              /usr/local/lpcxpresso_7.8.0_426/lpcxpresso/tools/bin/../lib/gcc/arm-none-eabi/4.9.3/../../../../arm-none-eabi/lib/libcr_c.a(_deferredlazyseek.o) (__sys_istty)
/usr/local/lpcxpresso_7.8.0_426/lpcxpresso/tools/bin/../lib/gcc/arm-none-eabi/4.9.3/../../../../arm-none-eabi/lib/libcr_nohost.a(__sys_read.o)
                              /usr/local/lpcxpresso_7.8.0_426/lpcxpresso/tools/bin/../lib/gcc/arm-none-eabi/4.9.3/../../../../arm-none-eabi/lib/libcr_c.a(__fillbuf.o) (__sys_read)
/usr/local/lpcxpresso_7.8.0_426/lpcxpresso/tools/bin/../lib/gcc/arm-none-eabi/4.9.3/../../../../arm-none-eabi/lib/libcr_nohost.a(__sys_readc.o)
                              /usr/local/lpcxpresso_7.8.0_426/lpcxpresso/tools/bin/../lib/gcc/arm-none-eabi/4.9.3/../../../../arm-none-eabi/lib/libcr_c.a(__fillbuf.o) (__sys_readc)
/usr/local/lpcxpresso_7.8.0_426/lpcxpresso/tools/bin/../lib/gcc/arm-none-eabi/4.9.3/../../../../arm-none-eabi/lib/libcr_nohost.a(__sys_remove.o)
                              /usr/local/lpcxpresso_7.8.0_426/lpcxpresso/tools/bin/../lib/gcc/arm-none-eabi/4.9.3/../../../../arm-none-eabi/lib/libcr_c.a(remove.o) (__sys_remove)
/usr/local/lpcxpresso_7.8.0_426/lpcxpresso/tools/bin/../lib/gcc/arm-none-eabi/4.9.3/../../../../arm-none-eabi/lib/libcr_nohost.a(__sys_rename.o)
                              /usr/local/lpcxpresso_7.8.0_426/lpcxpresso/tools/bin/../lib/gcc/arm-none-eabi/4.9.3/../../../../arm-none-eabi/lib/libcr_c.a(remove.o) (__sys_rename)
/usr/local/lpcxpresso_7.8.0_426/lpcxpresso/tools/bin/../lib/gcc/arm-none-eabi/4.9.3/../../../../arm-none-eabi/lib/libcr_nohost.a(__sys_seek.o)
                              /usr/local/lpcxpresso_7.8.0_426/lpcxpresso/tools/bin/../lib/gcc/arm-none-eabi/4.9.3/../../../../arm-none-eabi/lib/libcr_c.a(__fillbuf.o) (__sys_seek)
/usr/local/lpcxpresso_7.8.0_426/lpcxpresso/tools/bin/../lib/gcc/arm-none-eabi/4.9.3/../../../../arm-none-eabi/lib/libcr_nohost.a(__sys_tmpnam.o)
                              /usr/local/lpcxpresso_7.8.0_426/lpcxpresso/tools/bin/../lib/gcc/arm-none-eabi/4.9.3/../../../../arm-none-eabi/lib/libcr_c.a(fclose.o) (__sys_tmpnam)
/usr/local/lpcxpresso_7.8.0_426/lpcxpresso/tools/bin/../lib/gcc/arm-none-eabi/4.9.3/../../../../arm-none-eabi/lib/libcr_nohost.a(__sys_write.o)
                              /usr/local/lpcxpresso_7.8.0_426/lpcxpresso/tools/bin/../lib/gcc/arm-none-eabi/4.9.3/../../../../arm-none-eabi/lib/libcr_c.a(alloc.o) (__sys_write)

Allocating common symbols
Common symbol       size              file

password            0x6               ./src/spiglb.o
TL1                 0x1               ./src/spiglb.o
canregs             0x10              ./src/az4186_can.o
testoTouch          0x48              ./src/gui.o
SP                  0x1               ./src/spiglb.o
RunningPrgEndOk     0x4               ./src/spiglb.o
NextPrgAutomatic    0x4               ./src/spiglb.o
uartAnybus          0x44              ./src/Anybus.o
tagliaMoncone_Imp   0x4               ./src/spiutils.o
ucAutoAD_NumOfLatch_var
                    0x1               ./src/spimis.o
OV                  0x4               ./src/spiglb.o
hDist               0x38              ./src/spi.o
signalSuspendAnybus
                    0x2               ./src/Anybus.o
newEnc              0x2               ./src/spiglb.o
actCan              0x1               ./src/spiglb.o
body                0x20              ./src/file_list.o
I2CReadLength       0x4               ./src/i2c.o
ucMisuraDinamicaValidaSimulazione
                    0x1               ./src/spimis.o
I2CSlaveBuffer      0x40              ./src/i2c.o
actMenu             0x1               ./src/spiglb.o
actMenuBck          0x1               ./src/spiglb.o
canopen_init_seq    0x10              ./src/az4186_can.o
ui_act_dac_port_value
                    0x4               ./src/spi.o
RCAP2L              0x1               ./src/spiglb.o
WR                  0x4               ./src/spiglb.o
dummyLcd            0x1               ./src/lcd.o
ui_first_time_alarm_temperature_measure
                    0x4               ./src/az4186_temperature_compensation.o
handleVdip          0x1c              ./src/vdip.o
iActCounts          0x4               ./src/spimis.o
TaglioAsincrono     0x4               ./src/spiglb.o
actFrizione         0x1               ./src/spiglb.o
canopen_rx_msg      0x20              ./src/az4186_can.o
ui_stop_forced      0x4               ./src/spiutils.o
ulMinTrueRo         0x4               ./src/spi.o
infoImmagine        0x2               ./src/gui.o
uiCoordXY_ok_rect_button
                    0x180             ./src/gui.o
pParamsIcon         0x4               ./src/lcd.o
EX0                 0x4               ./src/spiglb.o
testoCallback       0x48              ./src/gui.o
Params_Icon_Lista   0x10              ./src/lcd.o
outDigMis           0x1               ./src/spiglb.o
seg7Point           0x1               ./src/spiglb.o
fResTaraturaFine    0x4               ./src/spi.o
RXD                 0x4               ./src/spiglb.o
rxHasMsg            0x4               ./src/spiglb.o
serRx               0x65              ./src/spiglb.o
MsgBuf_TX2          0x10              ./src/az4186_can.o
uc_reinit_ro_with_temperature_compensation
                    0x1               ./src/spimis.o
ADCSim1             0xa               ./src/spiglb.o
ucLinkEncoder       0x1               ./src/spidbg.o
uiCoordXY_buttonCenter
                    0xc0              ./src/gui.o
PX1                 0x4               ./src/spiglb.o
oldEncMis           0x2               ./src/spiglb.o
rtcBck              0x1               ./src/spiglb.o
bodyInfo            0xc               ./src/file_list.o
vic_IntEnable       0x4               ./src/mci.o
oldgapT             0x4               ./src/spiglb.o
lastPzLenImp        0x4               ./src/spiglb.o
plog                0x4               ./src/spimis.o
pTaratura           0x4               ./src/spimis.o
TB8                 0x4               ./src/spiglb.o
targetLenImp        0x4               ./src/spiglb.o
f_temperature_coefficient
                    0x4               ./src/spidbg.o
LCD_Cursore         0x14              ./src/gui.o
_extra              0x4               /usr/local/lpcxpresso_7.8.0_426/lpcxpresso/tools/bin/../lib/gcc/arm-none-eabi/4.9.3/../../../../arm-none-eabi/lib/libcr_c.a(initio.o)
TF0                 0x4               ./src/spiglb.o
nimpu               0x4               ./src/spimis.o
TMOD                0x1               ./src/spiglb.o
SM1                 0x4               ./src/spiglb.o
outDigMis_Hi        0x1               ./src/spimis.o
ui_temperature_alarm_subcode
                    0x4               ./src/az4186_temperature_compensation.o
encVal              0x2               ./src/spiglb.o
INT1                0x4               ./src/spiglb.o
hu                  0x1               ./src/spidbg.o
FatFs               0x4               ./ff9/src/ff.o
fArrayConvAD7327_Volts
                    0x20              ./src/spimis.o
sensoreTaglio       0x70              ./src/spimis.o
rdQueSpez           0x1               ./src/spiglb.o
hprg                0x230             ./src/az4186_program_codes.o
txReqLocalCommessa  0x4               ./src/spiglb.o
ucVdip_just2wait    0x1               ./src/vdip.o
spsi                0xc               ./src/params.o
TempoLampada        0x4               ./src/spiglb.o
tableLcdId          0x100             ./src/gui.o
ucLastCommandMandrino
                    0x1               ./src/I2C_Master.o
testRo_verify_tolerance
                    0x4               ./src/spimis.o
LCD_Lista           0x810             ./src/lcd.o
his                 0x64              ./src/spiutils.o
outDigSim           0x1               ./src/spiglb.o
lcdRefreshTimeout   0x14              ./src/spi.o
pJobsRunning_Jobs   0x4               ./src/spiwin2.o
enable_CAN1callback
                    0x4               ./CANopen_stack/LPC2388/CO_driver.o
ucMaxBadSpezzConsec
                    0x1               ./src/spi.o
ui_goto_temperature_compensation_params_window
                    0x4               ./src/spiutils.o
DPH                 0x1               ./src/spiglb.o
uc_after_ohm_m_fili_jump_to_enumWinId_Distanziatore
                    0x1               ./src/spiwin2.o
ucReinitStatusBandella
                    0x1               ./src/spi.o
watchDog            0x4               ./src/spiglb.o
checkPassw          0x4               ./src/spiglb.o
ADCSim              0x2               ./src/spiglb.o
isPressed           0x4               ./src/spiglb.o
actRo               0x4               ./src/spiglb.o
AppenaAcceso        0x1               ./src/spi.o
i_compensated_ro    0x4               ./src/spimis.o
updVel              0x4               ./src/spiglb.o
AC                  0x4               ./src/spiglb.o
uc_i2c_device_signaling_nack_at_start
                    0x1               ./src/i2c.o
numSampleRo         0x1               ./src/spimis.o
hma                 0x5ac             ./src/Anybus.o
lastRoNonCompensato
                    0x4               ./src/spimis.o
misStaVolt          0x4               ./src/spiglb.o
misStaStatus        0x1               ./src/spiglb.o
parErr              0x4               ./src/spiglb.o
sLCD                0x31c             ./src/spi.o
defaultTextSettings
                    0x8               ./src/gui.o
impToMm             0x4               ./src/spiglb.o
avvStatus           0x1               ./src/spiglb.o
macParms            0x204             ./src/spiglb.o
k                   0x1               ./src/I2C_Master.o
happ                0x1               ./src/spiwin2.o
pBitmapLista        0x4               ./src/lcd.o
P2                  0x1               ./src/spiglb.o
TCON                0x1               ./src/spiglb.o
TR2                 0x1               ./src/spiglb.o
ui_requested_precut_after_spacing
                    0x4               ./src/spimis.o
testoScrivi         0x48              ./src/gui.o
uiCursorePosY       0x4               ./src/spidbg.o
ulMaxTrueRo         0x4               ./src/spi.o
TL0                 0x1               ./src/spiglb.o
paramsNumK          0x48              ./src/spiutils.o
ucCountLoopBeforeSaveSetup
                    0x1               ./src/spidbg.o
lastRoNonCompensatoMain
                    0x8               ./src/spidbg.o
ucLastCommandTaglio
                    0x1               ./src/I2C_Master.o
testoPrintDefault   0x48              ./src/gui.o
ucMarkMemorizeSetup
                    0x1               ./src/spidbg.o
uiResultConvAd_Interrupt
                    0x20              ./src/spimis.o
impFromMis          0x4               ./src/spiglb.o
uiCursorePosX       0x4               ./src/spidbg.o
actStaPortata       0x1               ./src/spiglb.o
scp                 0x94              ./src/az4186_program_codes.o
uiCountToVerifyHasBeenGetNewSample
                    0x1               ./src/spi.o
TH0                 0x1               ./src/spiglb.o
ucFlagsFileModified
                    0x6               ./src/diskio.o
targetRes           0x4               ./src/spiglb.o
SaveDate            0x10              ./src/spi.o
wrQueSpez           0x1               ./src/spiglb.o
ucSaveCodice_his    0x15              ./src/spiwin2.o
auxPrg              0x110             ./src/az4186_program_codes.o
myInpDig            0x2               ./src/spiglb.o
actDynPortata       0x1               ./src/spimis.o
ul_numof_unmatched_msg
                    0x4               ./CANopen_stack/LPC2388/CO_driver.o
dist                0x1e4             ./src/params.o
hti                 0xc               ./src/main.o
minRo               0x4               ./src/spiglb.o
ucEliminaPrimoPezzo
                    0x1               ./src/spiutils.o
serParms            0x3               ./src/spiglb.o
IT1                 0x4               ./src/spiglb.o
ucCalibraLcdInCorso
                    0x1               ./src/gui.o
PX0                 0x4               ./src/spiglb.o
txBusy              0x4               ./src/spiglb.o
TR1                 0x4               ./src/spiglb.o
ul_clock_at_last_rpdo
                    0x4               ./CANopen_stack/CO_PDO.o
ucBytesRTC_DS3231   0x12              ./src/rtcDS3231_newer.o
ui_handle_product_codes
                    0x4               ./src/az4186_program_codes.o
uiNumValidationCodeList
                    0x4               ./src/spiwin2.o
T2CON               0x1               ./src/spiglb.o
InputAnalog         0x20              ./src/spiutils.o
B                   0x1               ./src/spiglb.o
REN                 0x4               ./src/spiglb.o
walk                0x2c              ./src/file_list.o
F0                  0x4               ./src/spiglb.o
ucStartLavorazione_enabled
                    0x1               ./src/popup.o
alarms              0x4               ./src/spiglb.o
uc_calling_from_view_codice_prodotto
                    0x1               ./src/spidbg.o
_exitvector         0x84              /usr/local/lpcxpresso_7.8.0_426/lpcxpresso/tools/bin/../lib/gcc/arm-none-eabi/4.9.3/../../../../arm-none-eabi/lib/libcr_c.a(stdlib.o)
spiralatrice        0x128             ./src/az4186_program_codes.o
pListLcd            0x4               ./src/lcd.o
act7segChar         0x4               ./src/spiglb.o
actSpezInPez        0x4               ./src/spiglb.o
lastRo              0x4               ./src/spimis.o
DPL                 0x1               ./src/spiglb.o
actFilo             0x1               ./src/spiglb.o
headTextOnDisplayQueue
                    0xc               ./src/gui.o
eeprom_queue        0x6c              ./src/az4186_eeprom_24c04.o
misStatus           0x1               ./src/spiglb.o
txNewPz             0x4               ./src/spiglb.o
examineBootReset    0x10              ./src/main.o
avvSleep            0x1               ./src/spiglb.o
I2CMode             0x4               ./src/i2c.o
RS0                 0x4               ./src/spiglb.o
ACC                 0x1               ./src/spiglb.o
PCON                0x1               ./src/spiglb.o
RS1                 0x4               ./src/spiglb.o
ucRememberLcdIntActive
                    0x1               ./src/lcd.o
PT1                 0x4               ./src/spiglb.o
structLCD           0x2               ./src/lcd.o
vdip_write          0x428             ./src/params.o
P0                  0x1               ./src/spiglb.o
T0                  0x4               ./src/spiglb.o
SCON                0x1               ./src/spiglb.o
TCLK                0x1               ./src/spiglb.o
i2c_master_xmit_buf
                    0xc               ./src/rtcDS3231_newer.o
oldEncLav           0x2               ./src/spiglb.o
chunkAvv            0x2               ./src/spiglb.o
oldnImpulsi         0x4               ./src/spiglb.o
uiNumLettureMisuraDinamica_Interrupt
                    0x1               ./src/spimis.o
uc_use_hexadecimal_letters
                    0x1               ./src/spiutils.o
ucActResCampioneSel
                    0x1               ./src/spi.o
his_privato         0x64              ./src/spiutils.o
I2CMasterBuffer     0x40              ./src/i2c.o
I2CCmd              0x4               ./src/i2c.o
uiCursorePosXnoLin  0x4               ./src/spidbg.o
ucSaveMacParms      0x1               ./src/spi.o
ipm                 0x10              ./src/spidbg.o
TPR                 0x2c              ./src/spimis.o
impToUnit           0x4               ./src/spiglb.o
SBUF                0x1               ./src/spiglb.o
testRo              0x4               ./src/spimis.o
actSpezAvv          0x4               ./src/spiglb.o
uiLetturaMisuraDinamica_Interrupt
                    0x4               ./src/spimis.o
backupAvvStatus     0x1               ./src/spiglb.o
CY                  0x4               ./src/spiglb.o
upd7segSleep        0x1               ./src/spiglb.o
fMeanValueInputAnalogOnTaratura
                    0x4               ./src/spi.o
handleBandella      0x10              ./src/spi.o
MsgBuf_RX2          0x10              ./src/az4186_can.o
IE                  0x1               ./src/spiglb.o
iArrayConvAD7327    0x20              ./src/spimis.o
nextTime            0x4               ./src/main.o
ui_temperature_coefficient_per_million
                    0x4               ./src/az4186_window_temperature_compensation.o
uc_num_cr_found_by_receive_vdip
                    0x1               ./src/vdip.o
TH1                 0x1               ./src/spiglb.o
RCAP2H              0x1               ./src/spiglb.o
newnImpulsi         0x4               ./src/spiglb.o
actNumInAna         0x1               ./src/spi.o
inpDigSim           0x2               ./src/spiglb.o
Bitmap_Lista        0xc               ./src/lcd.o
calcLimitRpm        0x10              ./src/codelist.o
iOffsetCounts2      0x4               ./src/spimis.o
cntAvv              0x1               ./src/spiglb.o
txModCont           0x4               ./src/spiglb.o
ui_i2c_alarm_subcode
                    0x4               ./src/i2c.o
uc_message_to_anybus
                    0xff              ./src/Anybus.o
nSpezDelay          0x2               ./src/spiglb.o
pTar                0x4               ./src/spiglb.o
lcdCal              0x1a8             ./src/gui.o
PrgRunning          0x4               ./src/spiglb.o
TI                  0x4               ./src/spiglb.o
gapImp              0x2               ./src/spiglb.o
nomRo               0x4               ./src/spiglb.o
actSubmenuBck       0x1               ./src/spiglb.o
RCLK                0x1               ./src/spiglb.o
edit                0x98              ./src/spiglb.o
ui_custom_string_read_error
                    0x4               ./src/az4186_files.o
cardInfo            0x8               ./src/mci.o
RB8                 0x4               ./src/spiglb.o
uc1charString       0x2               ./src/gui.o
enable_CAN2callback
                    0x4               ./CANopen_stack/LPC2388/CO_driver.o
anticipoPretaglio   0x2               ./src/spiglb.o
AlarmOnTimeout      0x1               ./src/spiglb.o
IE0                 0x4               ./src/spiglb.o
EX1                 0x4               ./src/spiglb.o
AccumRo             0x4               ./src/spimis.o
parIsOdd            0x4               ./src/spiglb.o
ET0                 0x4               ./src/spiglb.o
rtc                 0x18              ./src/rtcDS3231_newer.o
rtcYea              0x1               ./src/spiglb.o
urpToRes            0x4               ./src/spiglb.o
handleCambioBoccola
                    0x4               ./src/spiwin2.o
criticLav           0x4               ./src/spiglb.o
T1                  0x4               ./src/spiglb.o
buttons             0x180             ./src/spi.o
IP                  0x1               ./src/spiglb.o
f_delay_wait_spacer_in_precut_position_pulses
                    0x4               ./src/spimis.o
ucBooting           0x1               ./src/main.o
idxStringaTestoScrivi
                    0x1               ./src/gui.o
button_touched      0x2               ./src/spi.o
RI                  0x4               ./src/spiglb.o
i2c_master_rcv_buf  0xc               ./src/rtcDS3231_newer.o
time                0x4               ./src/main.o
P3                  0x1               ./src/spiglb.o
seg7ExtraSim        0x1               ./src/spiglb.o
CardRCA             0x4               ./src/mci.o
rtcDay              0x1               ./src/spiglb.o
rtcSec              0x1               ./src/spiglb.o
ulWaitCycles        0x4               ./src/main.o
stu                 0x10              ./src/spimis.o
ucCountNumLoop2VisualizeMisuraStaticaIntaratura
                    0x1               ./src/popup.o
vdip_info           0x238             ./src/vdip.o
distConversion      0xc               ./src/params.o
ucMachineParsStatiGranted
                    0x1               ./src/params.o
IE1                 0x4               ./src/spiglb.o
uiCntInterrupt      0x4               ./src/spimis.o
I2CWriteLength      0x4               ./src/i2c.o
ucBloccaVisualizzazioneMisuraStatica
                    0x1               ./src/spidbg.o
uc2charString       0x3               ./src/gui.o
NumSpezzone         0x4               ./src/spiglb.o
ADCStaSim           0x2               ./src/spiglb.o
hw                  0x4f0             ./src/spiutils.o
auxPrg_params       0x110             ./src/params.o
SM0                 0x4               ./src/spiglb.o
actSubmenu          0x1               ./src/spiglb.o
gsnpc               0x330             ./src/Anybus.o
resLastSpezUp       0x4               ./src/spiglb.o
ul_count_timeout_lcd_int_active
                    0x4               ./src/lcd.o
lastSubmenu         0x8               ./src/spiglb.o
resSta              0x4               ./src/spiglb.o
HRE                 0x30              ./src/params.o
ucStringAuxParams   0x80              ./src/params.o
checkedPassw        0x4               ./src/spiglb.o
isEdit              0x4               ./src/spiglb.o
preLenImp           0x4               ./src/spiglb.o
cntMis              0x1               ./src/spiglb.o
aie                 0x8               ./src/popup.o
SD                  0x24              ./src/mci.o
pJobsSelected_Jobs  0x4               ./src/spiwin2.o
s_write_canopen_parameter_result
                    0x4               ./src/az4186_can.o
PS                  0x4               ./src/spiglb.o
kbdInterface        0x2               ./src/gui.o
RD                  0x4               ./src/spiglb.o
ET1                 0x4               ./src/spiglb.o
newgapT             0x4               ./src/spiglb.o
criticMis           0x4               ./src/spiglb.o
_number_of_exit_functions
                    0x4               /usr/local/lpcxpresso_7.8.0_426/lpcxpresso/tools/bin/../lib/gcc/arm-none-eabi/4.9.3/../../../../arm-none-eabi/lib/libcr_c.a(stdlib.o)
rtcHou              0x1               ./src/spiglb.o
actCorrOhmica       0x4               ./src/spiglb.o
outDigVariable      0x4               ./src/spiglb.o
CAN1RxDone          0x4               ./src/az4186_can.o
ro                  0x4               ./src/spimis.o
ES                  0x4               ./src/spiglb.o
withMis             0x4               ./src/spiglb.o
MsgBuf_TX1          0x10              ./src/az4186_can.o
BitContaPezzi       0x4               ./src/spiglb.o
actPortata          0x1               ./src/spiglb.o
newpassw            0x6               ./src/spiglb.o
info_backup         0x24              ./src/az4186_files.o
handle_file_list_registry
                    0x2684            ./src/file_list.o
ucCntInterrupt      0x1               ./src/spimis.o
handleAnybusTxRx    0x264             ./src/Anybus.o
ucHoldMisuraStatica
                    0x1               ./src/spidbg.o
TXD                 0x4               ./src/spiglb.o
LampStatus          0x1               ./src/spiglb.o
splashScreen        0x8               ./src/gui.o
alr_status          0x1               ./src/spiglb.o
hforn               0x8               ./src/spidbg.o
rtcMin              0x1               ./src/spiglb.o
ucStringRx_Vdip     0xa0              ./src/vdip.o
INT0                0x4               ./src/spiglb.o
portataDinamica     0x14              ./src/spi.o
timeout_write_canopen_parameter
                    0x8               ./src/az4186_can.o
uc_the_byte_read_from_vdip
                    0x1               ./src/params.o
__heaps             0x4               /usr/local/lpcxpresso_7.8.0_426/lpcxpresso/tools/bin/../lib/gcc/arm-none-eabi/4.9.3/../../../../arm-none-eabi/lib/libcr_c.a(__init_alloc.o)
i2c_return_code     0x1               ./src/I2C_Master.o
IT0                 0x4               ./src/spiglb.o
iActCounts2         0x4               ./src/spimis.o
ucResetPiecesDone   0x1               ./src/spidbg.o
TR0                 0x4               ./src/spiglb.o
f_test              0x224             ./src/file_list.o
stringaTestoScrivi  0x28              ./src/gui.o
CounterMisDig       0x1               ./src/spimis.o
__end_of_heap       0x4               /usr/local/lpcxpresso_7.8.0_426/lpcxpresso/tools/bin/../lib/gcc/arm-none-eabi/4.9.3/../../../../arm-none-eabi/lib/libcr_c.a(__init_alloc.o)
actLenImp           0x4               ./src/spiglb.o
kbEnabOut           0x1               ./src/spiglb.o
firmwareVersion     0xc               ./src/main.o
pJobsRunning        0x4               ./src/spiwin2.o
actNumPezzi         0x2               ./src/spiglb.o
spezFilo            0x1c              ./src/spiglb.o
canopen_timer0      0xc               ./src/az4186_can.o
PT0                 0x4               ./src/spiglb.o
uc_requesting_i2c_bus
                    0x1               ./src/spimis.o
lastPzRes           0x2               ./src/spiglb.o
uc_accessing_eeprom_private
                    0x1               ./src/i2c.o
CAN2RxDone          0x4               ./src/az4186_can.o
ui_super_user_password_cycle
                    0x4               ./src/spidbg.o
hM                  0xfb              ./src/popup.o
ucTouchScreen_unPressed
                    0x1               ./src/lcd.o
CO                  0x4               ./src/az4186_can.o
maxRo               0x4               ./src/spiglb.o
str7seg             0xa               ./src/spiglb.o
ul_counter_interrupt_timer0
                    0x4               ./src/spimis.o
fResDeltaR          0x4               ./src/spi.o
ulContaMezzoGiro    0x4               ./src/spimis.o
MsgBuf_RX1          0x10              ./src/az4186_can.o
EA                  0x4               ./src/spiglb.o
actPreTime          0x1               ./src/spiglb.o
misStaSleep         0x1               ./src/spiglb.o
handleWaitOneCoil   0xc               ./src/spimis.o
PSW                 0x1               ./src/spiglb.o
ul_num_of_rpdo_rx   0x4               ./CANopen_stack/CO_PDO.o
privato_lavoro      0x58              ./src/spiwin2.o
ucNumErrNandFlash   0x1               ./src/spi.o
actTagTime          0x1               ./src/spiglb.o
production_log      0x57c             ./src/spimis.o
ulBoxSerialNumber   0x4               ./src/params.o
TF1                 0x4               ./src/spiglb.o
handle_wheel_inversion
                    0x14              ./src/spiutils.o
misSleep            0x1               ./src/spiglb.o
handleSaveParams    0x134             ./src/params.o
pJobsSelected       0x4               ./src/spiwin2.o
fatfs               0x234             ./src/spi.o
read_vdip_bytes     0x29              ./src/params.o
lastKeyPressed      0x1               ./src/spiglb.o
MCI_CardType        0x4               ./src/mci.o
serTx               0xc9              ./src/spiglb.o
SM2                 0x4               ./src/spiglb.o
myTI                0x4               ./src/spiglb.o
uc_super_user_password
                    0x26              ./src/spidbg.o
uc_vdip_short_pause
                    0x1               ./src/vdip.o
act7segCol          0x1               ./src/spiglb.o
__Ciob              0x140             /usr/local/lpcxpresso_7.8.0_426/lpcxpresso/tools/bin/../lib/gcc/arm-none-eabi/4.9.3/../../../../arm-none-eabi/lib/libcr_c.a(stdio.o)
msgNow              0x4               ./src/spi.o
ucActBadSpezzConsec
                    0x1               ./src/spi.o
P                   0x4               ./src/spiglb.o
roPrec              0x4               ./src/spimis.o
DACPortSim          0x1               ./src/spiglb.o
s_write_canopen_parameter
                    0x18              ./src/az4186_can.o
misDig              0x2               ./src/spiglb.o
seg7DataSim         0xa               ./src/spiglb.o
actRes              0x4               ./src/spiglb.o
rtcMon              0x1               ./src/spiglb.o
CANStatus           0x4               ./src/az4186_can.o
uiCursorePosYnoLin  0x4               ./src/spidbg.o
kbDataSim           0x1               ./src/spiglb.o

Discarded input sections

 .group         0x00000000        0x8 ./src/Anybus.o
 .group         0x00000000        0x8 ./src/Anybus.o
 .group         0x00000000        0x8 ./src/Anybus.o
 .group         0x00000000        0x8 ./src/Anybus.o
 .group         0x00000000        0x8 ./src/Anybus.o
 .group         0x00000000        0x8 ./src/Anybus.o
 .group         0x00000000        0x8 ./src/Anybus.o
 .group         0x00000000        0x8 ./src/Anybus.o
 .group         0x00000000        0x8 ./src/Anybus.o
 .group         0x00000000        0x8 ./src/Anybus.o
 .group         0x00000000        0x8 ./src/Anybus.o
 .group         0x00000000        0x8 ./src/Anybus.o
 .group         0x00000000        0x8 ./src/Anybus.o
 .group         0x00000000        0x8 ./src/Anybus.o
 .group         0x00000000        0x8 ./src/Anybus.o
 .group         0x00000000        0x8 ./src/Anybus.o
 .group         0x00000000        0x8 ./src/Anybus.o
 .group         0x00000000        0x8 ./src/Anybus.o
 .group         0x00000000        0x8 ./src/Anybus.o
 .group         0x00000000        0x8 ./src/Anybus.o
 .group         0x00000000        0x8 ./src/Anybus.o
 .group         0x00000000        0x8 ./src/Anybus.o
 .group         0x00000000        0x8 ./src/Anybus.o
 .group         0x00000000        0x8 ./src/Anybus.o
 .group         0x00000000        0x8 ./src/Anybus.o
 .group         0x00000000        0x8 ./src/Anybus.o
 .group         0x00000000        0x8 ./src/Anybus.o
 .group         0x00000000        0x8 ./src/Anybus.o
 .group         0x00000000        0x8 ./src/Anybus.o
 .group         0x00000000        0x8 ./src/Anybus.o
 .group         0x00000000        0x8 ./src/Anybus.o
 .group         0x00000000        0x8 ./src/I2C_Master.o
 .group         0x00000000        0x8 ./src/I2C_Master.o
 .group         0x00000000        0x8 ./src/I2C_Master.o
 .group         0x00000000        0x8 ./src/I2C_Master.o
 .group         0x00000000        0x8 ./src/I2C_Master.o
 .group         0x00000000        0x8 ./src/I2C_Master.o
 .group         0x00000000        0x8 ./src/I2C_Master.o
 .debug_macro   0x00000000      0x850 ./src/I2C_Master.o
 .debug_macro   0x00000000      0x763 ./src/I2C_Master.o
 .debug_macro   0x00000000      0x207 ./src/I2C_Master.o
 .group         0x00000000        0x8 ./src/az4186_can.o
 .group         0x00000000        0x8 ./src/az4186_can.o
 .group         0x00000000        0x8 ./src/az4186_can.o
 .group         0x00000000        0x8 ./src/az4186_can.o
 .group         0x00000000        0x8 ./src/az4186_can.o
 .group         0x00000000        0x8 ./src/az4186_can.o
 .group         0x00000000        0x8 ./src/az4186_can.o
 .group         0x00000000        0x8 ./src/az4186_can.o
 .group         0x00000000        0x8 ./src/az4186_can.o
 .group         0x00000000        0x8 ./src/az4186_can.o
 .group         0x00000000        0x8 ./src/az4186_can.o
 .group         0x00000000        0x8 ./src/az4186_can.o
 .group         0x00000000        0x8 ./src/az4186_can.o
 .group         0x00000000        0x8 ./src/az4186_can.o
 .group         0x00000000        0x8 ./src/az4186_can.o
 .group         0x00000000        0x8 ./src/az4186_can.o
 .group         0x00000000        0x8 ./src/az4186_can.o
 .group         0x00000000        0x8 ./src/az4186_can.o
 .group         0x00000000        0x8 ./src/az4186_can.o
 .group         0x00000000        0x8 ./src/az4186_can.o
 .group         0x00000000        0x8 ./src/az4186_can.o
 .group         0x00000000        0x8 ./src/az4186_can.o
 .group         0x00000000        0x8 ./src/az4186_can.o
 .group         0x00000000        0x8 ./src/az4186_can.o
 .group         0x00000000        0x8 ./src/az4186_can.o
 .group         0x00000000        0x8 ./src/az4186_can.o
 .group         0x00000000        0x8 ./src/az4186_can.o
 .group         0x00000000        0x8 ./src/az4186_can.o
 .group         0x00000000        0x8 ./src/az4186_can.o
 .group         0x00000000        0x8 ./src/az4186_can.o
 .group         0x00000000        0x8 ./src/az4186_can.o
 .group         0x00000000        0x8 ./src/az4186_can.o
 .group         0x00000000        0x8 ./src/az4186_can.o
 .group         0x00000000        0x8 ./src/az4186_can.o
 .debug_macro   0x00000000      0x850 ./src/az4186_can.o
 .debug_macro   0x00000000     0x197c ./src/az4186_can.o
 .debug_macro   0x00000000       0x1c ./src/az4186_can.o
 .debug_macro   0x00000000       0x64 ./src/az4186_can.o
 .debug_macro   0x00000000       0x10 ./src/az4186_can.o
 .debug_macro   0x00000000      0x12d ./src/az4186_can.o
 .debug_macro   0x00000000       0x22 ./src/az4186_can.o
 .debug_macro   0x00000000      0x207 ./src/az4186_can.o
 .debug_macro   0x00000000       0xd1 ./src/az4186_can.o
 .debug_macro   0x00000000      0x10c ./src/az4186_can.o
 .debug_macro   0x00000000       0x10 ./src/az4186_can.o
 .debug_macro   0x00000000      0x5b2 ./src/az4186_can.o
 .debug_macro   0x00000000      0x763 ./src/az4186_can.o
 .debug_macro   0x00000000      0x249 ./src/az4186_can.o
 .debug_macro   0x00000000       0xeb ./src/az4186_can.o
 .debug_macro   0x00000000       0x16 ./src/az4186_can.o
 .debug_macro   0x00000000       0x16 ./src/az4186_can.o
 .debug_macro   0x00000000       0x25 ./src/az4186_can.o
 .debug_macro   0x00000000       0x34 ./src/az4186_can.o
 .debug_macro   0x00000000       0x1c ./src/az4186_can.o
 .debug_macro   0x00000000       0xdb ./src/az4186_can.o
 .debug_macro   0x00000000       0xc4 ./src/az4186_can.o
 .debug_macro   0x00000000      0x16b ./src/az4186_can.o
 .debug_macro   0x00000000       0x7c ./src/az4186_can.o
 .debug_macro   0x00000000      0x8b4 ./src/az4186_can.o
 .group         0x00000000        0x8 ./src/az4186_dac.o
 .group         0x00000000        0x8 ./src/az4186_dac.o
 .group         0x00000000        0x8 ./src/az4186_dac.o
 .group         0x00000000        0x8 ./src/az4186_dac.o
 .group         0x00000000        0x8 ./src/az4186_dac.o
 .debug_macro   0x00000000      0x850 ./src/az4186_dac.o
 .debug_macro   0x00000000     0x197c ./src/az4186_dac.o
 .debug_macro   0x00000000       0x1c ./src/az4186_dac.o
 .debug_macro   0x00000000       0x64 ./src/az4186_dac.o
 .debug_macro   0x00000000      0x207 ./src/az4186_dac.o
 .group         0x00000000        0x8 ./src/az4186_eeprom_24c04.o
 .group         0x00000000        0x8 ./src/az4186_eeprom_24c04.o
 .group         0x00000000        0x8 ./src/az4186_eeprom_24c04.o
 .group         0x00000000        0x8 ./src/az4186_eeprom_24c04.o
 .group         0x00000000        0x8 ./src/az4186_eeprom_24c04.o
 .group         0x00000000        0x8 ./src/az4186_eeprom_24c04.o
 .group         0x00000000        0x8 ./src/az4186_eeprom_24c04.o
 .group         0x00000000        0x8 ./src/az4186_eeprom_24c04.o
 .group         0x00000000        0x8 ./src/az4186_eeprom_24c04.o
 .group         0x00000000        0x8 ./src/az4186_eeprom_24c04.o
 .group         0x00000000        0x8 ./src/az4186_eeprom_24c04.o
 .group         0x00000000        0x8 ./src/az4186_eeprom_24c04.o
 .group         0x00000000        0x8 ./src/az4186_eeprom_24c04.o
 .group         0x00000000        0x8 ./src/az4186_eeprom_24c04.o
 .group         0x00000000        0x8 ./src/az4186_eeprom_24c04.o
 .group         0x00000000        0x8 ./src/az4186_eeprom_24c04.o
 .group         0x00000000        0x8 ./src/az4186_eeprom_24c04.o
 .group         0x00000000        0x8 ./src/az4186_eeprom_24c04.o
 .group         0x00000000        0x8 ./src/az4186_eeprom_24c04.o
 .group         0x00000000        0x8 ./src/az4186_eeprom_24c04.o
 .group         0x00000000        0x8 ./src/az4186_eeprom_24c04.o
 .group         0x00000000        0x8 ./src/az4186_eeprom_24c04.o
 .group         0x00000000        0x8 ./src/az4186_eeprom_24c04.o
 .group         0x00000000        0x8 ./src/az4186_eeprom_24c04.o
 .group         0x00000000        0x8 ./src/az4186_eeprom_24c04.o
 .group         0x00000000        0x8 ./src/az4186_eeprom_24c04.o
 .group         0x00000000        0x8 ./src/az4186_eeprom_24c04.o
 .debug_macro   0x00000000      0x850 ./src/az4186_eeprom_24c04.o
 .debug_macro   0x00000000     0x197c ./src/az4186_eeprom_24c04.o
 .debug_macro   0x00000000       0x1c ./src/az4186_eeprom_24c04.o
 .debug_macro   0x00000000       0x64 ./src/az4186_eeprom_24c04.o
 .debug_macro   0x00000000       0x10 ./src/az4186_eeprom_24c04.o
 .debug_macro   0x00000000      0x12d ./src/az4186_eeprom_24c04.o
 .debug_macro   0x00000000       0x9a ./src/az4186_eeprom_24c04.o
 .debug_macro   0x00000000       0x22 ./src/az4186_eeprom_24c04.o
 .debug_macro   0x00000000       0x7c ./src/az4186_eeprom_24c04.o
 .debug_macro   0x00000000      0x207 ./src/az4186_eeprom_24c04.o
 .debug_macro   0x00000000       0x16 ./src/az4186_eeprom_24c04.o
 .debug_macro   0x00000000      0x124 ./src/az4186_eeprom_24c04.o
 .debug_macro   0x00000000       0xd0 ./src/az4186_eeprom_24c04.o
 .debug_macro   0x00000000       0x34 ./src/az4186_eeprom_24c04.o
 .debug_macro   0x00000000      0x763 ./src/az4186_eeprom_24c04.o
 .debug_macro   0x00000000      0x5b2 ./src/az4186_eeprom_24c04.o
 .debug_macro   0x00000000       0xd1 ./src/az4186_eeprom_24c04.o
 .debug_macro   0x00000000      0x10c ./src/az4186_eeprom_24c04.o
 .debug_macro   0x00000000       0x10 ./src/az4186_eeprom_24c04.o
 .debug_macro   0x00000000      0x249 ./src/az4186_eeprom_24c04.o
 .debug_macro   0x00000000       0xeb ./src/az4186_eeprom_24c04.o
 .debug_macro   0x00000000       0x16 ./src/az4186_eeprom_24c04.o
 .debug_macro   0x00000000       0x16 ./src/az4186_eeprom_24c04.o
 .debug_macro   0x00000000       0x25 ./src/az4186_eeprom_24c04.o
 .debug_macro   0x00000000       0x34 ./src/az4186_eeprom_24c04.o
 .debug_macro   0x00000000       0x1c ./src/az4186_eeprom_24c04.o
 .debug_macro   0x00000000       0xdb ./src/az4186_eeprom_24c04.o
 .group         0x00000000        0x8 ./src/az4186_emc.o
 .group         0x00000000        0x8 ./src/az4186_emc.o
 .group         0x00000000        0x8 ./src/az4186_emc.o
 .group         0x00000000        0x8 ./src/az4186_emc.o
 .group         0x00000000        0x8 ./src/az4186_emc.o
 .group         0x00000000        0x8 ./src/az4186_emc.o
 .group         0x00000000        0x8 ./src/az4186_emc.o
 .group         0x00000000        0x8 ./src/az4186_emc.o
 .group         0x00000000        0x8 ./src/az4186_emc.o
 .group         0x00000000        0x8 ./src/az4186_emc.o
 .group         0x00000000        0x8 ./src/az4186_emc.o
 .debug_macro   0x00000000      0x850 ./src/az4186_emc.o
 .debug_macro   0x00000000       0x10 ./src/az4186_emc.o
 .debug_macro   0x00000000      0x12d ./src/az4186_emc.o
 .debug_macro   0x00000000       0xc4 ./src/az4186_emc.o
 .debug_macro   0x00000000       0x7c ./src/az4186_emc.o
 .debug_macro   0x00000000     0x197c ./src/az4186_emc.o
 .debug_macro   0x00000000       0x16 ./src/az4186_emc.o
 .debug_macro   0x00000000       0x64 ./src/az4186_emc.o
 .debug_macro   0x00000000      0x207 ./src/az4186_emc.o
 .debug_macro   0x00000000       0x16 ./src/az4186_emc.o
 .group         0x00000000        0x8 ./src/az4186_files.o
 .group         0x00000000        0x8 ./src/az4186_files.o
 .group         0x00000000        0x8 ./src/az4186_files.o
 .group         0x00000000        0x8 ./src/az4186_files.o
 .group         0x00000000        0x8 ./src/az4186_files.o
 .group         0x00000000        0x8 ./src/az4186_files.o
 .group         0x00000000        0x8 ./src/az4186_files.o
 .group         0x00000000        0x8 ./src/az4186_files.o
 .group         0x00000000        0x8 ./src/az4186_files.o
 .group         0x00000000        0x8 ./src/az4186_files.o
 .group         0x00000000        0x8 ./src/az4186_files.o
 .group         0x00000000        0x8 ./src/az4186_files.o
 .group         0x00000000        0x8 ./src/az4186_files.o
 .group         0x00000000        0x8 ./src/az4186_files.o
 .group         0x00000000        0x8 ./src/az4186_files.o
 .group         0x00000000        0x8 ./src/az4186_files.o
 .group         0x00000000        0x8 ./src/az4186_files.o
 .group         0x00000000        0x8 ./src/az4186_files.o
 .group         0x00000000        0x8 ./src/az4186_files.o
 .group         0x00000000        0x8 ./src/az4186_files.o
 .group         0x00000000        0x8 ./src/az4186_files.o
 .group         0x00000000        0x8 ./src/az4186_files.o
 .group         0x00000000        0x8 ./src/az4186_files.o
 .group         0x00000000        0x8 ./src/az4186_files.o
 .group         0x00000000        0x8 ./src/az4186_files.o
 .group         0x00000000        0x8 ./src/az4186_files.o
 .group         0x00000000        0x8 ./src/az4186_files.o
 .group         0x00000000        0x8 ./src/az4186_files.o
 .debug_macro   0x00000000      0x850 ./src/az4186_files.o
 .debug_macro   0x00000000     0x197c ./src/az4186_files.o
 .debug_macro   0x00000000       0x10 ./src/az4186_files.o
 .debug_macro   0x00000000      0x12d ./src/az4186_files.o
 .debug_macro   0x00000000       0xa0 ./src/az4186_files.o
 .debug_macro   0x00000000       0x22 ./src/az4186_files.o
 .debug_macro   0x00000000       0x7c ./src/az4186_files.o
 .debug_macro   0x00000000       0x16 ./src/az4186_files.o
 .debug_macro   0x00000000      0x124 ./src/az4186_files.o
 .debug_macro   0x00000000       0x64 ./src/az4186_files.o
 .debug_macro   0x00000000       0x91 ./src/az4186_files.o
 .debug_macro   0x00000000       0xe7 ./src/az4186_files.o
 .debug_macro   0x00000000       0x16 ./src/az4186_files.o
 .debug_macro   0x00000000       0x16 ./src/az4186_files.o
 .debug_macro   0x00000000       0x25 ./src/az4186_files.o
 .debug_macro   0x00000000      0x5b2 ./src/az4186_files.o
 .debug_macro   0x00000000       0x1c ./src/az4186_files.o
 .debug_macro   0x00000000      0x763 ./src/az4186_files.o
 .debug_macro   0x00000000       0xd1 ./src/az4186_files.o
 .debug_macro   0x00000000      0x10c ./src/az4186_files.o
 .debug_macro   0x00000000       0x10 ./src/az4186_files.o
 .debug_macro   0x00000000      0x249 ./src/az4186_files.o
 .debug_macro   0x00000000       0xeb ./src/az4186_files.o
 .debug_macro   0x00000000       0xdb ./src/az4186_files.o
 .group         0x00000000        0x8 ./src/az4186_initHw.o
 .group         0x00000000        0x8 ./src/az4186_initHw.o
 .group         0x00000000        0x8 ./src/az4186_initHw.o
 .group         0x00000000        0x8 ./src/az4186_initHw.o
 .group         0x00000000        0x8 ./src/az4186_initHw.o
 .group         0x00000000        0x8 ./src/az4186_initHw.o
 .group         0x00000000        0x8 ./src/az4186_initHw.o
 .group         0x00000000        0x8 ./src/az4186_initHw.o
 .group         0x00000000        0x8 ./src/az4186_initHw.o
 .group         0x00000000        0x8 ./src/az4186_initHw.o
 .group         0x00000000        0x8 ./src/az4186_initHw.o
 .debug_macro   0x00000000      0x850 ./src/az4186_initHw.o
 .debug_macro   0x00000000       0x10 ./src/az4186_initHw.o
 .debug_macro   0x00000000      0x12d ./src/az4186_initHw.o
 .debug_macro   0x00000000       0x28 ./src/az4186_initHw.o
 .debug_macro   0x00000000       0xc4 ./src/az4186_initHw.o
 .debug_macro   0x00000000       0x7c ./src/az4186_initHw.o
 .debug_macro   0x00000000     0x197c ./src/az4186_initHw.o
 .debug_macro   0x00000000       0x16 ./src/az4186_initHw.o
 .debug_macro   0x00000000       0x64 ./src/az4186_initHw.o
 .debug_macro   0x00000000      0x207 ./src/az4186_initHw.o
 .debug_macro   0x00000000       0x16 ./src/az4186_initHw.o
 .group         0x00000000        0x8 ./src/az4186_program_codes.o
 .group         0x00000000        0x8 ./src/az4186_program_codes.o
 .group         0x00000000        0x8 ./src/az4186_program_codes.o
 .group         0x00000000        0x8 ./src/az4186_program_codes.o
 .group         0x00000000        0x8 ./src/az4186_program_codes.o
 .group         0x00000000        0x8 ./src/az4186_program_codes.o
 .group         0x00000000        0x8 ./src/az4186_program_codes.o
 .group         0x00000000        0x8 ./src/az4186_program_codes.o
 .group         0x00000000        0x8 ./src/az4186_program_codes.o
 .group         0x00000000        0x8 ./src/az4186_program_codes.o
 .group         0x00000000        0x8 ./src/az4186_program_codes.o
 .group         0x00000000        0x8 ./src/az4186_program_codes.o
 .group         0x00000000        0x8 ./src/az4186_program_codes.o
 .group         0x00000000        0x8 ./src/az4186_program_codes.o
 .group         0x00000000        0x8 ./src/az4186_program_codes.o
 .group         0x00000000        0x8 ./src/az4186_program_codes.o
 .group         0x00000000        0x8 ./src/az4186_program_codes.o
 .group         0x00000000        0x8 ./src/az4186_program_codes.o
 .group         0x00000000        0x8 ./src/az4186_program_codes.o
 .group         0x00000000        0x8 ./src/az4186_program_codes.o
 .group         0x00000000        0x8 ./src/az4186_program_codes.o
 .group         0x00000000        0x8 ./src/az4186_program_codes.o
 .group         0x00000000        0x8 ./src/az4186_program_codes.o
 .group         0x00000000        0x8 ./src/az4186_program_codes.o
 .group         0x00000000        0x8 ./src/az4186_program_codes.o
 .debug_macro   0x00000000      0x850 ./src/az4186_program_codes.o
 .debug_macro   0x00000000     0x197c ./src/az4186_program_codes.o
 .debug_macro   0x00000000       0x1c ./src/az4186_program_codes.o
 .debug_macro   0x00000000      0x124 ./src/az4186_program_codes.o
 .debug_macro   0x00000000       0x64 ./src/az4186_program_codes.o
 .debug_macro   0x00000000      0x1e6 ./src/az4186_program_codes.o
 .debug_macro   0x00000000       0x3a ./src/az4186_program_codes.o
 .debug_macro   0x00000000       0x10 ./src/az4186_program_codes.o
 .debug_macro   0x00000000      0x12d ./src/az4186_program_codes.o
 .debug_macro   0x00000000       0x91 ./src/az4186_program_codes.o
 .debug_macro   0x00000000       0x10 ./src/az4186_program_codes.o
 .debug_macro   0x00000000       0x16 ./src/az4186_program_codes.o
 .debug_macro   0x00000000       0x16 ./src/az4186_program_codes.o
 .debug_macro   0x00000000       0x25 ./src/az4186_program_codes.o
 .debug_macro   0x00000000      0x5b2 ./src/az4186_program_codes.o
 .debug_macro   0x00000000       0x2e ./src/az4186_program_codes.o
 .debug_macro   0x00000000      0x763 ./src/az4186_program_codes.o
 .debug_macro   0x00000000       0xd1 ./src/az4186_program_codes.o
 .debug_macro   0x00000000      0x10c ./src/az4186_program_codes.o
 .debug_macro   0x00000000       0x10 ./src/az4186_program_codes.o
 .debug_macro   0x00000000      0x249 ./src/az4186_program_codes.o
 .debug_macro   0x00000000       0xeb ./src/az4186_program_codes.o
 .debug_macro   0x00000000       0x1c ./src/az4186_program_codes.o
 .debug_macro   0x00000000       0xdb ./src/az4186_program_codes.o
 .group         0x00000000        0x8 ./src/az4186_temperature_compensation.o
 .group         0x00000000        0x8 ./src/az4186_temperature_compensation.o
 .group         0x00000000        0x8 ./src/az4186_temperature_compensation.o
 .group         0x00000000        0x8 ./src/az4186_temperature_compensation.o
 .group         0x00000000        0x8 ./src/az4186_temperature_compensation.o
 .group         0x00000000        0x8 ./src/az4186_temperature_compensation.o
 .group         0x00000000        0x8 ./src/az4186_temperature_compensation.o
 .group         0x00000000        0x8 ./src/az4186_temperature_compensation.o
 .group         0x00000000        0x8 ./src/az4186_temperature_compensation.o
 .group         0x00000000        0x8 ./src/az4186_temperature_compensation.o
 .group         0x00000000        0x8 ./src/az4186_temperature_compensation.o
 .group         0x00000000        0x8 ./src/az4186_temperature_compensation.o
 .group         0x00000000        0x8 ./src/az4186_temperature_compensation.o
 .group         0x00000000        0x8 ./src/az4186_temperature_compensation.o
 .group         0x00000000        0x8 ./src/az4186_temperature_compensation.o
 .group         0x00000000        0x8 ./src/az4186_temperature_compensation.o
 .group         0x00000000        0x8 ./src/az4186_temperature_compensation.o
 .group         0x00000000        0x8 ./src/az4186_temperature_compensation.o
 .group         0x00000000        0x8 ./src/az4186_temperature_compensation.o
 .group         0x00000000        0x8 ./src/az4186_temperature_compensation.o
 .group         0x00000000        0x8 ./src/az4186_temperature_compensation.o
 .group         0x00000000        0x8 ./src/az4186_temperature_compensation.o
 .group         0x00000000        0x8 ./src/az4186_temperature_compensation.o
 .group         0x00000000        0x8 ./src/az4186_temperature_compensation.o
 .group         0x00000000        0x8 ./src/az4186_temperature_compensation.o
 .group         0x00000000        0x8 ./src/az4186_temperature_compensation.o
 .group         0x00000000        0x8 ./src/az4186_temperature_compensation.o
 .group         0x00000000        0x8 ./src/az4186_temperature_compensation.o
 .group         0x00000000        0x8 ./src/az4186_temperature_compensation.o
 .group         0x00000000        0x8 ./src/az4186_temperature_compensation.o
 .group         0x00000000        0x8 ./src/az4186_temperature_compensation.o
 .group         0x00000000        0x8 ./src/az4186_temperature_compensation.o
 .group         0x00000000        0x8 ./src/az4186_temperature_compensation.o
 .group         0x00000000        0x8 ./src/az4186_temperature_compensation.o
 .debug_macro   0x00000000      0x850 ./src/az4186_temperature_compensation.o
 .debug_macro   0x00000000     0x197c ./src/az4186_temperature_compensation.o
 .debug_macro   0x00000000       0x1c ./src/az4186_temperature_compensation.o
 .debug_macro   0x00000000       0x64 ./src/az4186_temperature_compensation.o
 .debug_macro   0x00000000       0x10 ./src/az4186_temperature_compensation.o
 .debug_macro   0x00000000      0x12d ./src/az4186_temperature_compensation.o
 .debug_macro   0x00000000       0x9a ./src/az4186_temperature_compensation.o
 .debug_macro   0x00000000       0x22 ./src/az4186_temperature_compensation.o
 .debug_macro   0x00000000      0x207 ./src/az4186_temperature_compensation.o
 .debug_macro   0x00000000       0x16 ./src/az4186_temperature_compensation.o
 .debug_macro   0x00000000      0x124 ./src/az4186_temperature_compensation.o
 .debug_macro   0x00000000      0x107 ./src/az4186_temperature_compensation.o
 .debug_macro   0x00000000       0xd1 ./src/az4186_temperature_compensation.o
 .debug_macro   0x00000000      0x10c ./src/az4186_temperature_compensation.o
 .debug_macro   0x00000000       0x10 ./src/az4186_temperature_compensation.o
 .debug_macro   0x00000000       0x88 ./src/az4186_temperature_compensation.o
 .debug_macro   0x00000000      0x263 ./src/az4186_temperature_compensation.o
 .debug_macro   0x00000000       0x49 ./src/az4186_temperature_compensation.o
 .debug_macro   0x00000000      0x15a ./src/az4186_temperature_compensation.o
 .debug_macro   0x00000000       0x78 ./src/az4186_temperature_compensation.o
 .debug_macro   0x00000000      0x5b2 ./src/az4186_temperature_compensation.o
 .debug_macro   0x00000000      0x763 ./src/az4186_temperature_compensation.o
 .debug_macro   0x00000000      0x249 ./src/az4186_temperature_compensation.o
 .debug_macro   0x00000000       0xeb ./src/az4186_temperature_compensation.o
 .debug_macro   0x00000000       0x16 ./src/az4186_temperature_compensation.o
 .debug_macro   0x00000000       0x16 ./src/az4186_temperature_compensation.o
 .debug_macro   0x00000000       0x25 ./src/az4186_temperature_compensation.o
 .debug_macro   0x00000000       0x34 ./src/az4186_temperature_compensation.o
 .debug_macro   0x00000000       0x1c ./src/az4186_temperature_compensation.o
 .debug_macro   0x00000000       0xdb ./src/az4186_temperature_compensation.o
 .debug_macro   0x00000000       0xc4 ./src/az4186_temperature_compensation.o
 .debug_macro   0x00000000      0x16b ./src/az4186_temperature_compensation.o
 .debug_macro   0x00000000       0x7c ./src/az4186_temperature_compensation.o
 .debug_macro   0x00000000      0x8b4 ./src/az4186_temperature_compensation.o
 .group         0x00000000        0x8 ./src/az4186_window_temperature_compensation.o
 .group         0x00000000        0x8 ./src/az4186_window_temperature_compensation.o
 .group         0x00000000        0x8 ./src/az4186_window_temperature_compensation.o
 .group         0x00000000        0x8 ./src/az4186_window_temperature_compensation.o
 .group         0x00000000        0x8 ./src/az4186_window_temperature_compensation.o
 .group         0x00000000        0x8 ./src/az4186_window_temperature_compensation.o
 .group         0x00000000        0x8 ./src/az4186_window_temperature_compensation.o
 .group         0x00000000        0x8 ./src/az4186_window_temperature_compensation.o
 .group         0x00000000        0x8 ./src/az4186_window_temperature_compensation.o
 .group         0x00000000        0x8 ./src/az4186_window_temperature_compensation.o
 .group         0x00000000        0x8 ./src/az4186_window_temperature_compensation.o
 .group         0x00000000        0x8 ./src/az4186_window_temperature_compensation.o
 .group         0x00000000        0x8 ./src/az4186_window_temperature_compensation.o
 .group         0x00000000        0x8 ./src/az4186_window_temperature_compensation.o
 .group         0x00000000        0x8 ./src/az4186_window_temperature_compensation.o
 .group         0x00000000        0x8 ./src/az4186_window_temperature_compensation.o
 .group         0x00000000        0x8 ./src/az4186_window_temperature_compensation.o
 .group         0x00000000        0x8 ./src/az4186_window_temperature_compensation.o
 .group         0x00000000        0x8 ./src/az4186_window_temperature_compensation.o
 .group         0x00000000        0x8 ./src/az4186_window_temperature_compensation.o
 .group         0x00000000        0x8 ./src/az4186_window_temperature_compensation.o
 .group         0x00000000        0x8 ./src/az4186_window_temperature_compensation.o
 .group         0x00000000        0x8 ./src/az4186_window_temperature_compensation.o
 .group         0x00000000        0x8 ./src/az4186_window_temperature_compensation.o
 .group         0x00000000        0x8 ./src/az4186_window_temperature_compensation.o
 .group         0x00000000        0x8 ./src/az4186_window_temperature_compensation.o
 .group         0x00000000        0x8 ./src/az4186_window_temperature_compensation.o
 .group         0x00000000        0x8 ./src/az4186_window_temperature_compensation.o
 .group         0x00000000        0x8 ./src/az4186_window_temperature_compensation.o
 .group         0x00000000        0x8 ./src/az4186_window_temperature_compensation.o
 .debug_macro   0x00000000      0x850 ./src/az4186_window_temperature_compensation.o
 .debug_macro   0x00000000       0x10 ./src/az4186_window_temperature_compensation.o
 .debug_macro   0x00000000      0x12d ./src/az4186_window_temperature_compensation.o
 .debug_macro   0x00000000       0xa0 ./src/az4186_window_temperature_compensation.o
 .debug_macro   0x00000000       0xc4 ./src/az4186_window_temperature_compensation.o
 .debug_macro   0x00000000       0x22 ./src/az4186_window_temperature_compensation.o
 .debug_macro   0x00000000      0x16b ./src/az4186_window_temperature_compensation.o
 .debug_macro   0x00000000       0x7c ./src/az4186_window_temperature_compensation.o
 .debug_macro   0x00000000      0x5b2 ./src/az4186_window_temperature_compensation.o
 .debug_macro   0x00000000      0x763 ./src/az4186_window_temperature_compensation.o
 .debug_macro   0x00000000       0xd1 ./src/az4186_window_temperature_compensation.o
 .debug_macro   0x00000000      0x10c ./src/az4186_window_temperature_compensation.o
 .debug_macro   0x00000000       0x10 ./src/az4186_window_temperature_compensation.o
 .debug_macro   0x00000000      0x249 ./src/az4186_window_temperature_compensation.o
 .debug_macro   0x00000000       0xeb ./src/az4186_window_temperature_compensation.o
 .debug_macro   0x00000000       0x16 ./src/az4186_window_temperature_compensation.o
 .debug_macro   0x00000000       0x16 ./src/az4186_window_temperature_compensation.o
 .debug_macro   0x00000000       0x25 ./src/az4186_window_temperature_compensation.o
 .debug_macro   0x00000000       0x34 ./src/az4186_window_temperature_compensation.o
 .debug_macro   0x00000000       0x1c ./src/az4186_window_temperature_compensation.o
 .debug_macro   0x00000000       0xdb ./src/az4186_window_temperature_compensation.o
 .debug_macro   0x00000000      0x1ba ./src/az4186_window_temperature_compensation.o
 .debug_macro   0x00000000      0x5e0 ./src/az4186_window_temperature_compensation.o
 .debug_macro   0x00000000       0x34 ./src/az4186_window_temperature_compensation.o
 .debug_macro   0x00000000      0x8b4 ./src/az4186_window_temperature_compensation.o
 .debug_macro   0x00000000       0x34 ./src/az4186_window_temperature_compensation.o
 .debug_macro   0x00000000       0x10 ./src/az4186_window_temperature_compensation.o
 .debug_macro   0x00000000       0x16 ./src/az4186_window_temperature_compensation.o
 .debug_macro   0x00000000       0x91 ./src/az4186_window_temperature_compensation.o
 .debug_macro   0x00000000       0xe7 ./src/az4186_window_temperature_compensation.o
 .group         0x00000000        0x8 ./src/codelist.o
 .group         0x00000000        0x8 ./src/codelist.o
 .group         0x00000000        0x8 ./src/codelist.o
 .group         0x00000000        0x8 ./src/codelist.o
 .group         0x00000000        0x8 ./src/codelist.o
 .group         0x00000000        0x8 ./src/codelist.o
 .group         0x00000000        0x8 ./src/codelist.o
 .group         0x00000000        0x8 ./src/codelist.o
 .group         0x00000000        0x8 ./src/codelist.o
 .group         0x00000000        0x8 ./src/codelist.o
 .group         0x00000000        0x8 ./src/codelist.o
 .group         0x00000000        0x8 ./src/codelist.o
 .group         0x00000000        0x8 ./src/codelist.o
 .group         0x00000000        0x8 ./src/codelist.o
 .group         0x00000000        0x8 ./src/codelist.o
 .group         0x00000000        0x8 ./src/codelist.o
 .group         0x00000000        0x8 ./src/codelist.o
 .group         0x00000000        0x8 ./src/codelist.o
 .group         0x00000000        0x8 ./src/codelist.o
 .group         0x00000000        0x8 ./src/codelist.o
 .group         0x00000000        0x8 ./src/codelist.o
 .group         0x00000000        0x8 ./src/codelist.o
 .group         0x00000000        0x8 ./src/codelist.o
 .group         0x00000000        0x8 ./src/codelist.o
 .group         0x00000000        0x8 ./src/codelist.o
 .group         0x00000000        0x8 ./src/codelist.o
 .debug_macro   0x00000000      0x850 ./src/codelist.o
 .debug_macro   0x00000000       0x10 ./src/codelist.o
 .debug_macro   0x00000000      0x12d ./src/codelist.o
 .debug_macro   0x00000000       0xa0 ./src/codelist.o
 .debug_macro   0x00000000       0xc4 ./src/codelist.o
 .debug_macro   0x00000000       0x22 ./src/codelist.o
 .debug_macro   0x00000000      0x16b ./src/codelist.o
 .debug_macro   0x00000000       0x7c ./src/codelist.o
 .debug_macro   0x00000000      0x5b2 ./src/codelist.o
 .debug_macro   0x00000000      0x763 ./src/codelist.o
 .debug_macro   0x00000000       0xd1 ./src/codelist.o
 .debug_macro   0x00000000      0x10c ./src/codelist.o
 .debug_macro   0x00000000       0x10 ./src/codelist.o
 .debug_macro   0x00000000      0x249 ./src/codelist.o
 .debug_macro   0x00000000       0xeb ./src/codelist.o
 .debug_macro   0x00000000       0x16 ./src/codelist.o
 .debug_macro   0x00000000       0x16 ./src/codelist.o
 .debug_macro   0x00000000       0x25 ./src/codelist.o
 .debug_macro   0x00000000       0x34 ./src/codelist.o
 .debug_macro   0x00000000       0x1c ./src/codelist.o
 .debug_macro   0x00000000       0xdb ./src/codelist.o
 .debug_macro   0x00000000      0x1ba ./src/codelist.o
 .debug_macro   0x00000000      0x5e0 ./src/codelist.o
 .debug_macro   0x00000000       0x34 ./src/codelist.o
 .debug_macro   0x00000000      0x8b4 ./src/codelist.o
 .debug_macro   0x00000000       0x34 ./src/codelist.o
 .group         0x00000000        0x8 ./src/crp.o
 .group         0x00000000        0x8 ./src/crp.o
 .debug_macro   0x00000000      0x850 ./src/crp.o
 .group         0x00000000        0x8 ./src/diskio.o
 .group         0x00000000        0x8 ./src/diskio.o
 .group         0x00000000        0x8 ./src/diskio.o
 .group         0x00000000        0x8 ./src/diskio.o
 .group         0x00000000        0x8 ./src/diskio.o
 .group         0x00000000        0x8 ./src/diskio.o
 .group         0x00000000        0x8 ./src/diskio.o
 .group         0x00000000        0x8 ./src/diskio.o
 .group         0x00000000        0x8 ./src/diskio.o
 .group         0x00000000        0x8 ./src/diskio.o
 .group         0x00000000        0x8 ./src/diskio.o
 .group         0x00000000        0x8 ./src/diskio.o
 .group         0x00000000        0x8 ./src/diskio.o
 .group         0x00000000        0x8 ./src/diskio.o
 .group         0x00000000        0x8 ./src/diskio.o
 .group         0x00000000        0x8 ./src/diskio.o
 .group         0x00000000        0x8 ./src/diskio.o
 .group         0x00000000        0x8 ./src/diskio.o
 .group         0x00000000        0x8 ./src/diskio.o
 .group         0x00000000        0x8 ./src/diskio.o
 .group         0x00000000        0x8 ./src/diskio.o
 .group         0x00000000        0x8 ./src/diskio.o
 .group         0x00000000        0x8 ./src/diskio.o
 .group         0x00000000        0x8 ./src/diskio.o
 .debug_macro   0x00000000      0x850 ./src/diskio.o
 .debug_macro   0x00000000     0x197c ./src/diskio.o
 .debug_macro   0x00000000       0x1c ./src/diskio.o
 .debug_macro   0x00000000      0x124 ./src/diskio.o
 .debug_macro   0x00000000       0x64 ./src/diskio.o
 .debug_macro   0x00000000      0x1e6 ./src/diskio.o
 .debug_macro   0x00000000       0x3a ./src/diskio.o
 .debug_macro   0x00000000       0x10 ./src/diskio.o
 .debug_macro   0x00000000      0x12d ./src/diskio.o
 .debug_macro   0x00000000      0x5b2 ./src/diskio.o
 .debug_macro   0x00000000      0x763 ./src/diskio.o
 .debug_macro   0x00000000       0xd1 ./src/diskio.o
 .debug_macro   0x00000000      0x10c ./src/diskio.o
 .debug_macro   0x00000000       0x10 ./src/diskio.o
 .debug_macro   0x00000000      0x249 ./src/diskio.o
 .debug_macro   0x00000000       0xeb ./src/diskio.o
 .debug_macro   0x00000000       0x16 ./src/diskio.o
 .debug_macro   0x00000000       0x16 ./src/diskio.o
 .debug_macro   0x00000000       0x25 ./src/diskio.o
 .debug_macro   0x00000000       0x34 ./src/diskio.o
 .debug_macro   0x00000000       0x1c ./src/diskio.o
 .debug_macro   0x00000000       0xdb ./src/diskio.o
 .group         0x00000000        0x8 ./src/dma.o
 .group         0x00000000        0x8 ./src/dma.o
 .group         0x00000000        0x8 ./src/dma.o
 .group         0x00000000        0x8 ./src/dma.o
 .group         0x00000000        0x8 ./src/dma.o
 .group         0x00000000        0x8 ./src/dma.o
 .group         0x00000000        0x8 ./src/dma.o
 .debug_macro   0x00000000      0x850 ./src/dma.o
 .debug_macro   0x00000000     0x197c ./src/dma.o
 .debug_macro   0x00000000       0x1c ./src/dma.o
 .debug_macro   0x00000000      0x124 ./src/dma.o
 .debug_macro   0x00000000       0x64 ./src/dma.o
 .debug_macro   0x00000000      0x1e6 ./src/dma.o
 .debug_macro   0x00000000       0x3a ./src/dma.o
 .group         0x00000000        0x8 ./src/fat_time.o
 .group         0x00000000        0x8 ./src/fat_time.o
 .group         0x00000000        0x8 ./src/fat_time.o
 .group         0x00000000        0x8 ./src/fat_time.o
 .group         0x00000000        0x8 ./src/fat_time.o
 .group         0x00000000        0x8 ./src/fat_time.o
 .group         0x00000000        0x8 ./src/fat_time.o
 .group         0x00000000        0x8 ./src/fat_time.o
 .group         0x00000000        0x8 ./src/fat_time.o
 .group         0x00000000        0x8 ./src/fat_time.o
 .group         0x00000000        0x8 ./src/fat_time.o
 .group         0x00000000        0x8 ./src/fat_time.o
 .debug_macro   0x00000000      0x850 ./src/fat_time.o
 .debug_macro   0x00000000     0x197c ./src/fat_time.o
 .debug_macro   0x00000000       0x10 ./src/fat_time.o
 .debug_macro   0x00000000      0x12d ./src/fat_time.o
 .debug_macro   0x00000000       0xa0 ./src/fat_time.o
 .debug_macro   0x00000000       0x22 ./src/fat_time.o
 .debug_macro   0x00000000       0x16 ./src/fat_time.o
 .debug_macro   0x00000000      0x124 ./src/fat_time.o
 .debug_macro   0x00000000       0x64 ./src/fat_time.o
 .debug_macro   0x00000000      0x1e6 ./src/fat_time.o
 .debug_macro   0x00000000       0x3a ./src/fat_time.o
 .debug_macro   0x00000000       0x10 ./src/fat_time.o
 .group         0x00000000        0x8 ./src/file_list.o
 .group         0x00000000        0x8 ./src/file_list.o
 .group         0x00000000        0x8 ./src/file_list.o
 .group         0x00000000        0x8 ./src/file_list.o
 .group         0x00000000        0x8 ./src/file_list.o
 .group         0x00000000        0x8 ./src/file_list.o
 .group         0x00000000        0x8 ./src/file_list.o
 .group         0x00000000        0x8 ./src/file_list.o
 .group         0x00000000        0x8 ./src/file_list.o
 .group         0x00000000        0x8 ./src/file_list.o
 .group         0x00000000        0x8 ./src/file_list.o
 .group         0x00000000        0x8 ./src/file_list.o
 .group         0x00000000        0x8 ./src/file_list.o
 .debug_macro   0x00000000      0x850 ./src/file_list.o
 .debug_macro   0x00000000     0x197c ./src/file_list.o
 .debug_macro   0x00000000       0x1c ./src/file_list.o
 .debug_macro   0x00000000      0x124 ./src/file_list.o
 .debug_macro   0x00000000       0x64 ./src/file_list.o
 .debug_macro   0x00000000      0x1e6 ./src/file_list.o
 .debug_macro   0x00000000       0x3a ./src/file_list.o
 .debug_macro   0x00000000       0x10 ./src/file_list.o
 .debug_macro   0x00000000      0x12d ./src/file_list.o
 .debug_macro   0x00000000       0x91 ./src/file_list.o
 .debug_macro   0x00000000       0xee ./src/file_list.o
 .debug_macro   0x00000000       0x10 ./src/file_list.o
 .group         0x00000000        0x8 ./src/gui.o
 .group         0x00000000        0x8 ./src/gui.o
 .group         0x00000000        0x8 ./src/gui.o
 .group         0x00000000        0x8 ./src/gui.o
 .group         0x00000000        0x8 ./src/gui.o
 .group         0x00000000        0x8 ./src/gui.o
 .group         0x00000000        0x8 ./src/gui.o
 .group         0x00000000        0x8 ./src/gui.o
 .group         0x00000000        0x8 ./src/gui.o
 .group         0x00000000        0x8 ./src/gui.o
 .group         0x00000000        0x8 ./src/gui.o
 .group         0x00000000        0x8 ./src/gui.o
 .group         0x00000000        0x8 ./src/gui.o
 .group         0x00000000        0x8 ./src/gui.o
 .group         0x00000000        0x8 ./src/gui.o
 .group         0x00000000        0x8 ./src/gui.o
 .group         0x00000000        0x8 ./src/gui.o
 .group         0x00000000        0x8 ./src/gui.o
 .group         0x00000000        0x8 ./src/gui.o
 .group         0x00000000        0x8 ./src/gui.o
 .group         0x00000000        0x8 ./src/gui.o
 .group         0x00000000        0x8 ./src/gui.o
 .group         0x00000000        0x8 ./src/gui.o
 .debug_macro   0x00000000      0x850 ./src/gui.o
 .debug_macro   0x00000000       0x10 ./src/gui.o
 .debug_macro   0x00000000      0x12d ./src/gui.o
 .debug_macro   0x00000000       0x28 ./src/gui.o
 .debug_macro   0x00000000       0x9a ./src/gui.o
 .debug_macro   0x00000000       0xc4 ./src/gui.o
 .debug_macro   0x00000000       0x7c ./src/gui.o
 .debug_macro   0x00000000      0x207 ./src/gui.o
 .debug_macro   0x00000000       0xd1 ./src/gui.o
 .debug_macro   0x00000000      0x10c ./src/gui.o
 .debug_macro   0x00000000       0x10 ./src/gui.o
 .debug_macro   0x00000000      0x763 ./src/gui.o
 .debug_macro   0x00000000      0x5b2 ./src/gui.o
 .debug_macro   0x00000000      0x249 ./src/gui.o
 .debug_macro   0x00000000       0xeb ./src/gui.o
 .debug_macro   0x00000000       0x16 ./src/gui.o
 .debug_macro   0x00000000       0x16 ./src/gui.o
 .debug_macro   0x00000000       0x25 ./src/gui.o
 .debug_macro   0x00000000       0x34 ./src/gui.o
 .debug_macro   0x00000000       0x1c ./src/gui.o
 .debug_macro   0x00000000       0xdb ./src/gui.o
 .debug_macro   0x00000000      0x16b ./src/gui.o
 .debug_macro   0x00000000      0x8b4 ./src/gui.o
 .group         0x00000000        0x8 ./src/i2c.o
 .group         0x00000000        0x8 ./src/i2c.o
 .group         0x00000000        0x8 ./src/i2c.o
 .group         0x00000000        0x8 ./src/i2c.o
 .group         0x00000000        0x8 ./src/i2c.o
 .group         0x00000000        0x8 ./src/i2c.o
 .group         0x00000000        0x8 ./src/i2c.o
 .group         0x00000000        0x8 ./src/i2c.o
 .group         0x00000000        0x8 ./src/i2c.o
 .group         0x00000000        0x8 ./src/i2c.o
 .group         0x00000000        0x8 ./src/i2c.o
 .group         0x00000000        0x8 ./src/i2c.o
 .group         0x00000000        0x8 ./src/i2c.o
 .group         0x00000000        0x8 ./src/i2c.o
 .group         0x00000000        0x8 ./src/i2c.o
 .group         0x00000000        0x8 ./src/i2c.o
 .group         0x00000000        0x8 ./src/i2c.o
 .group         0x00000000        0x8 ./src/i2c.o
 .group         0x00000000        0x8 ./src/i2c.o
 .group         0x00000000        0x8 ./src/i2c.o
 .group         0x00000000        0x8 ./src/i2c.o
 .debug_macro   0x00000000      0x850 ./src/i2c.o
 .debug_macro   0x00000000     0x197c ./src/i2c.o
 .debug_macro   0x00000000       0x1c ./src/i2c.o
 .debug_macro   0x00000000      0x124 ./src/i2c.o
 .debug_macro   0x00000000       0xd0 ./src/i2c.o
 .debug_macro   0x00000000       0x10 ./src/i2c.o
 .debug_macro   0x00000000      0x12d ./src/i2c.o
 .debug_macro   0x00000000      0x5b2 ./src/i2c.o
 .debug_macro   0x00000000      0x763 ./src/i2c.o
 .debug_macro   0x00000000       0xd1 ./src/i2c.o
 .debug_macro   0x00000000      0x10c ./src/i2c.o
 .debug_macro   0x00000000       0x10 ./src/i2c.o
 .debug_macro   0x00000000      0x249 ./src/i2c.o
 .debug_macro   0x00000000       0xeb ./src/i2c.o
 .debug_macro   0x00000000       0x16 ./src/i2c.o
 .debug_macro   0x00000000       0x16 ./src/i2c.o
 .debug_macro   0x00000000       0x25 ./src/i2c.o
 .debug_macro   0x00000000       0x34 ./src/i2c.o
 .debug_macro   0x00000000       0x1c ./src/i2c.o
 .debug_macro   0x00000000       0xdb ./src/i2c.o
 .debug_macro   0x00000000      0x207 ./src/i2c.o
 .group         0x00000000        0x8 ./src/inverse_v1.o
 .debug_macro   0x00000000      0x850 ./src/inverse_v1.o
 .group         0x00000000        0x8 ./src/lcd.o
 .group         0x00000000        0x8 ./src/lcd.o
 .group         0x00000000        0x8 ./src/lcd.o
 .group         0x00000000        0x8 ./src/lcd.o
 .group         0x00000000        0x8 ./src/lcd.o
 .group         0x00000000        0x8 ./src/lcd.o
 .group         0x00000000        0x8 ./src/lcd.o
 .group         0x00000000        0x8 ./src/lcd.o
 .group         0x00000000        0x8 ./src/lcd.o
 .debug_macro   0x00000000      0x850 ./src/lcd.o
 .debug_macro   0x00000000       0x10 ./src/lcd.o
 .debug_macro   0x00000000      0x12d ./src/lcd.o
 .debug_macro   0x00000000       0x28 ./src/lcd.o
 .debug_macro   0x00000000       0x9a ./src/lcd.o
 .debug_macro   0x00000000      0x207 ./src/lcd.o
 .debug_macro   0x00000000       0xd1 ./src/lcd.o
 .debug_macro   0x00000000      0x10c ./src/lcd.o
 .debug_macro   0x00000000       0x10 ./src/lcd.o
 .group         0x00000000        0x8 ./src/main.o
 .group         0x00000000        0x8 ./src/main.o
 .group         0x00000000        0x8 ./src/main.o
 .group         0x00000000        0x8 ./src/main.o
 .group         0x00000000        0x8 ./src/main.o
 .group         0x00000000        0x8 ./src/main.o
 .group         0x00000000        0x8 ./src/main.o
 .group         0x00000000        0x8 ./src/main.o
 .group         0x00000000        0x8 ./src/main.o
 .group         0x00000000        0x8 ./src/main.o
 .group         0x00000000        0x8 ./src/main.o
 .group         0x00000000        0x8 ./src/main.o
 .group         0x00000000        0x8 ./src/main.o
 .group         0x00000000        0x8 ./src/main.o
 .group         0x00000000        0x8 ./src/main.o
 .group         0x00000000        0x8 ./src/main.o
 .group         0x00000000        0x8 ./src/main.o
 .group         0x00000000        0x8 ./src/main.o
 .group         0x00000000        0x8 ./src/main.o
 .group         0x00000000        0x8 ./src/main.o
 .group         0x00000000        0x8 ./src/main.o
 .group         0x00000000        0x8 ./src/main.o
 .group         0x00000000        0x8 ./src/main.o
 .group         0x00000000        0x8 ./src/main.o
 .group         0x00000000        0x8 ./src/main.o
 .group         0x00000000        0x8 ./src/main.o
 .group         0x00000000        0x8 ./src/main.o
 .group         0x00000000        0x8 ./src/main.o
 .group         0x00000000        0x8 ./src/main.o
 .group         0x00000000        0x8 ./src/main.o
 .group         0x00000000        0x8 ./src/main.o
 .group         0x00000000        0x8 ./src/main.o
 .debug_macro   0x00000000      0x850 ./src/main.o
 .debug_macro   0x00000000       0x10 ./src/main.o
 .debug_macro   0x00000000      0x12d ./src/main.o
 .debug_macro   0x00000000       0x28 ./src/main.o
 .debug_macro   0x00000000       0x9a ./src/main.o
 .debug_macro   0x00000000       0xc4 ./src/main.o
 .debug_macro   0x00000000       0x7c ./src/main.o
 .debug_macro   0x00000000     0x197c ./src/main.o
 .debug_macro   0x00000000       0x16 ./src/main.o
 .debug_macro   0x00000000       0x64 ./src/main.o
 .debug_macro   0x00000000      0x207 ./src/main.o
 .debug_macro   0x00000000      0x124 ./src/main.o
 .debug_macro   0x00000000       0xd1 ./src/main.o
 .debug_macro   0x00000000      0x5b2 ./src/main.o
 .debug_macro   0x00000000      0x763 ./src/main.o
 .debug_macro   0x00000000      0x10c ./src/main.o
 .debug_macro   0x00000000       0x10 ./src/main.o
 .debug_macro   0x00000000      0x249 ./src/main.o
 .debug_macro   0x00000000       0xeb ./src/main.o
 .debug_macro   0x00000000       0x16 ./src/main.o
 .debug_macro   0x00000000       0x16 ./src/main.o
 .debug_macro   0x00000000       0x25 ./src/main.o
 .debug_macro   0x00000000       0x34 ./src/main.o
 .debug_macro   0x00000000       0x1c ./src/main.o
 .debug_macro   0x00000000       0xdb ./src/main.o
 .debug_macro   0x00000000       0x10 ./src/main.o
 .debug_macro   0x00000000       0x34 ./src/main.o
 .debug_macro   0x00000000       0x91 ./src/main.o
 .debug_macro   0x00000000       0xe7 ./src/main.o
 .debug_macro   0x00000000       0x16 ./src/main.o
 .debug_macro   0x00000000       0x34 ./src/main.o
 .debug_macro   0x00000000      0x107 ./src/main.o
 .group         0x00000000        0x8 ./src/mci.o
 .group         0x00000000        0x8 ./src/mci.o
 .group         0x00000000        0x8 ./src/mci.o
 .group         0x00000000        0x8 ./src/mci.o
 .group         0x00000000        0x8 ./src/mci.o
 .group         0x00000000        0x8 ./src/mci.o
 .group         0x00000000        0x8 ./src/mci.o
 .group         0x00000000        0x8 ./src/mci.o
 .group         0x00000000        0x8 ./src/mci.o
 .group         0x00000000        0x8 ./src/mci.o
 .debug_macro   0x00000000      0x850 ./src/mci.o
 .debug_macro   0x00000000     0x197c ./src/mci.o
 .debug_macro   0x00000000       0x1c ./src/mci.o
 .debug_macro   0x00000000      0x124 ./src/mci.o
 .debug_macro   0x00000000       0x64 ./src/mci.o
 .debug_macro   0x00000000      0x1e6 ./src/mci.o
 .debug_macro   0x00000000       0x3a ./src/mci.o
 .debug_macro   0x00000000       0x10 ./src/mci.o
 .debug_macro   0x00000000      0x12d ./src/mci.o
 .debug_macro   0x00000000      0x207 ./src/mci.o
 .group         0x00000000        0x8 ./src/params.o
 .group         0x00000000        0x8 ./src/params.o
 .group         0x00000000        0x8 ./src/params.o
 .group         0x00000000        0x8 ./src/params.o
 .group         0x00000000        0x8 ./src/params.o
 .group         0x00000000        0x8 ./src/params.o
 .group         0x00000000        0x8 ./src/params.o
 .group         0x00000000        0x8 ./src/params.o
 .group         0x00000000        0x8 ./src/params.o
 .group         0x00000000        0x8 ./src/params.o
 .group         0x00000000        0x8 ./src/params.o
 .group         0x00000000        0x8 ./src/params.o
 .group         0x00000000        0x8 ./src/params.o
 .group         0x00000000        0x8 ./src/params.o
 .group         0x00000000        0x8 ./src/params.o
 .group         0x00000000        0x8 ./src/params.o
 .group         0x00000000        0x8 ./src/params.o
 .group         0x00000000        0x8 ./src/params.o
 .group         0x00000000        0x8 ./src/params.o
 .group         0x00000000        0x8 ./src/params.o
 .group         0x00000000        0x8 ./src/params.o
 .group         0x00000000        0x8 ./src/params.o
 .group         0x00000000        0x8 ./src/params.o
 .group         0x00000000        0x8 ./src/params.o
 .group         0x00000000        0x8 ./src/params.o
 .group         0x00000000        0x8 ./src/params.o
 .group         0x00000000        0x8 ./src/params.o
 .group         0x00000000        0x8 ./src/params.o
 .group         0x00000000        0x8 ./src/params.o
 .group         0x00000000        0x8 ./src/params.o
 .debug_macro   0x00000000      0x850 ./src/params.o
 .debug_macro   0x00000000       0x10 ./src/params.o
 .debug_macro   0x00000000      0x12d ./src/params.o
 .debug_macro   0x00000000       0xa0 ./src/params.o
 .debug_macro   0x00000000       0xc4 ./src/params.o
 .debug_macro   0x00000000       0x22 ./src/params.o
 .debug_macro   0x00000000      0x16b ./src/params.o
 .debug_macro   0x00000000       0x7c ./src/params.o
 .debug_macro   0x00000000      0x5b2 ./src/params.o
 .debug_macro   0x00000000      0x763 ./src/params.o
 .debug_macro   0x00000000       0xd1 ./src/params.o
 .debug_macro   0x00000000      0x10c ./src/params.o
 .debug_macro   0x00000000       0x10 ./src/params.o
 .debug_macro   0x00000000      0x249 ./src/params.o
 .debug_macro   0x00000000       0xeb ./src/params.o
 .debug_macro   0x00000000       0x16 ./src/params.o
 .debug_macro   0x00000000       0x16 ./src/params.o
 .debug_macro   0x00000000       0x25 ./src/params.o
 .debug_macro   0x00000000       0x34 ./src/params.o
 .debug_macro   0x00000000       0x1c ./src/params.o
 .debug_macro   0x00000000       0xdb ./src/params.o
 .debug_macro   0x00000000      0x1ba ./src/params.o
 .debug_macro   0x00000000      0x5e0 ./src/params.o
 .debug_macro   0x00000000       0x34 ./src/params.o
 .debug_macro   0x00000000      0x8b4 ./src/params.o
 .debug_macro   0x00000000       0x34 ./src/params.o
 .debug_macro   0x00000000       0x10 ./src/params.o
 .debug_macro   0x00000000       0x16 ./src/params.o
 .debug_macro   0x00000000       0x91 ./src/params.o
 .debug_macro   0x00000000       0xe7 ./src/params.o
 .group         0x00000000        0x8 ./src/popup.o
 .group         0x00000000        0x8 ./src/popup.o
 .group         0x00000000        0x8 ./src/popup.o
 .group         0x00000000        0x8 ./src/popup.o
 .group         0x00000000        0x8 ./src/popup.o
 .group         0x00000000        0x8 ./src/popup.o
 .group         0x00000000        0x8 ./src/popup.o
 .group         0x00000000        0x8 ./src/popup.o
 .group         0x00000000        0x8 ./src/popup.o
 .group         0x00000000        0x8 ./src/popup.o
 .group         0x00000000        0x8 ./src/popup.o
 .group         0x00000000        0x8 ./src/popup.o
 .group         0x00000000        0x8 ./src/popup.o
 .group         0x00000000        0x8 ./src/popup.o
 .group         0x00000000        0x8 ./src/popup.o
 .group         0x00000000        0x8 ./src/popup.o
 .group         0x00000000        0x8 ./src/popup.o
 .group         0x00000000        0x8 ./src/popup.o
 .group         0x00000000        0x8 ./src/popup.o
 .group         0x00000000        0x8 ./src/popup.o
 .group         0x00000000        0x8 ./src/popup.o
 .group         0x00000000        0x8 ./src/popup.o
 .group         0x00000000        0x8 ./src/popup.o
 .group         0x00000000        0x8 ./src/popup.o
 .group         0x00000000        0x8 ./src/popup.o
 .group         0x00000000        0x8 ./src/popup.o
 .group         0x00000000        0x8 ./src/popup.o
 .debug_macro   0x00000000      0x850 ./src/popup.o
 .debug_macro   0x00000000       0x10 ./src/popup.o
 .debug_macro   0x00000000      0x12d ./src/popup.o
 .debug_macro   0x00000000       0xa0 ./src/popup.o
 .debug_macro   0x00000000       0xc4 ./src/popup.o
 .debug_macro   0x00000000       0x22 ./src/popup.o
 .debug_macro   0x00000000      0x16b ./src/popup.o
 .debug_macro   0x00000000       0x7c ./src/popup.o
 .debug_macro   0x00000000      0x5b2 ./src/popup.o
 .debug_macro   0x00000000      0x763 ./src/popup.o
 .debug_macro   0x00000000       0xd1 ./src/popup.o
 .debug_macro   0x00000000      0x10c ./src/popup.o
 .debug_macro   0x00000000       0x10 ./src/popup.o
 .debug_macro   0x00000000      0x249 ./src/popup.o
 .debug_macro   0x00000000       0xeb ./src/popup.o
 .debug_macro   0x00000000       0x16 ./src/popup.o
 .debug_macro   0x00000000       0x16 ./src/popup.o
 .debug_macro   0x00000000       0x25 ./src/popup.o
 .debug_macro   0x00000000       0x34 ./src/popup.o
 .debug_macro   0x00000000       0x1c ./src/popup.o
 .debug_macro   0x00000000       0xdb ./src/popup.o
 .debug_macro   0x00000000      0x1ba ./src/popup.o
 .debug_macro   0x00000000      0x5e0 ./src/popup.o
 .debug_macro   0x00000000       0x34 ./src/popup.o
 .debug_macro   0x00000000      0x8b4 ./src/popup.o
 .debug_macro   0x00000000       0x34 ./src/popup.o
 .debug_macro   0x00000000      0x207 ./src/popup.o
 .group         0x00000000        0x8 ./src/rtcDS3231_newer.o
 .group         0x00000000        0x8 ./src/rtcDS3231_newer.o
 .group         0x00000000        0x8 ./src/rtcDS3231_newer.o
 .group         0x00000000        0x8 ./src/rtcDS3231_newer.o
 .group         0x00000000        0x8 ./src/rtcDS3231_newer.o
 .group         0x00000000        0x8 ./src/rtcDS3231_newer.o
 .group         0x00000000        0x8 ./src/rtcDS3231_newer.o
 .group         0x00000000        0x8 ./src/rtcDS3231_newer.o
 .group         0x00000000        0x8 ./src/rtcDS3231_newer.o
 .group         0x00000000        0x8 ./src/rtcDS3231_newer.o
 .debug_macro   0x00000000      0x850 ./src/rtcDS3231_newer.o
 .debug_macro   0x00000000     0x197c ./src/rtcDS3231_newer.o
 .debug_macro   0x00000000       0x10 ./src/rtcDS3231_newer.o
 .debug_macro   0x00000000      0x12d ./src/rtcDS3231_newer.o
 .debug_macro   0x00000000       0x28 ./src/rtcDS3231_newer.o
 .debug_macro   0x00000000       0x16 ./src/rtcDS3231_newer.o
 .debug_macro   0x00000000      0x124 ./src/rtcDS3231_newer.o
 .debug_macro   0x00000000       0xd0 ./src/rtcDS3231_newer.o
 .debug_macro   0x00000000       0x34 ./src/rtcDS3231_newer.o
 .debug_macro   0x00000000       0x10 ./src/rtcDS3231_newer.o
 .group         0x00000000        0x8 ./src/spi.o
 .group         0x00000000        0x8 ./src/spi.o
 .group         0x00000000        0x8 ./src/spi.o
 .group         0x00000000        0x8 ./src/spi.o
 .group         0x00000000        0x8 ./src/spi.o
 .group         0x00000000        0x8 ./src/spi.o
 .group         0x00000000        0x8 ./src/spi.o
 .group         0x00000000        0x8 ./src/spi.o
 .group         0x00000000        0x8 ./src/spi.o
 .group         0x00000000        0x8 ./src/spi.o
 .group         0x00000000        0x8 ./src/spi.o
 .group         0x00000000        0x8 ./src/spi.o
 .group         0x00000000        0x8 ./src/spi.o
 .group         0x00000000        0x8 ./src/spi.o
 .group         0x00000000        0x8 ./src/spi.o
 .group         0x00000000        0x8 ./src/spi.o
 .group         0x00000000        0x8 ./src/spi.o
 .group         0x00000000        0x8 ./src/spi.o
 .group         0x00000000        0x8 ./src/spi.o
 .group         0x00000000        0x8 ./src/spi.o
 .group         0x00000000        0x8 ./src/spi.o
 .group         0x00000000        0x8 ./src/spi.o
 .group         0x00000000        0x8 ./src/spi.o
 .group         0x00000000        0x8 ./src/spi.o
 .group         0x00000000        0x8 ./src/spi.o
 .group         0x00000000        0x8 ./src/spi.o
 .group         0x00000000        0x8 ./src/spi.o
 .group         0x00000000        0x8 ./src/spi.o
 .group         0x00000000        0x8 ./src/spi.o
 .group         0x00000000        0x8 ./src/spi.o
 .group         0x00000000        0x8 ./src/spi.o
 .group         0x00000000        0x8 ./src/spi.o
 .group         0x00000000        0x8 ./src/spi.o
 .group         0x00000000        0x8 ./src/spi.o
 .debug_macro   0x00000000      0x850 ./src/spi.o
 .debug_macro   0x00000000       0x10 ./src/spi.o
 .debug_macro   0x00000000      0x12d ./src/spi.o
 .debug_macro   0x00000000       0xa0 ./src/spi.o
 .debug_macro   0x00000000       0xc4 ./src/spi.o
 .debug_macro   0x00000000       0x22 ./src/spi.o
 .debug_macro   0x00000000      0x16b ./src/spi.o
 .debug_macro   0x00000000       0x7c ./src/spi.o
 .debug_macro   0x00000000     0x197c ./src/spi.o
 .debug_macro   0x00000000       0x16 ./src/spi.o
 .debug_macro   0x00000000       0x64 ./src/spi.o
 .debug_macro   0x00000000      0x207 ./src/spi.o
 .debug_macro   0x00000000      0x5b2 ./src/spi.o
 .debug_macro   0x00000000      0x763 ./src/spi.o
 .debug_macro   0x00000000       0xd1 ./src/spi.o
 .debug_macro   0x00000000      0x10c ./src/spi.o
 .debug_macro   0x00000000       0x10 ./src/spi.o
 .debug_macro   0x00000000      0x249 ./src/spi.o
 .debug_macro   0x00000000       0xeb ./src/spi.o
 .debug_macro   0x00000000       0x16 ./src/spi.o
 .debug_macro   0x00000000       0x16 ./src/spi.o
 .debug_macro   0x00000000       0x25 ./src/spi.o
 .debug_macro   0x00000000       0x34 ./src/spi.o
 .debug_macro   0x00000000       0x1c ./src/spi.o
 .debug_macro   0x00000000       0xdb ./src/spi.o
 .debug_macro   0x00000000      0x1ba ./src/spi.o
 .debug_macro   0x00000000      0x5e0 ./src/spi.o
 .debug_macro   0x00000000       0x34 ./src/spi.o
 .debug_macro   0x00000000      0x8b4 ./src/spi.o
 .debug_macro   0x00000000       0x91 ./src/spi.o
 .debug_macro   0x00000000       0xe7 ./src/spi.o
 .debug_macro   0x00000000       0x10 ./src/spi.o
 .debug_macro   0x00000000       0x10 ./src/spi.o
 .debug_macro   0x00000000      0x107 ./src/spi.o
 .group         0x00000000        0x8 ./src/spidbg.o
 .group         0x00000000        0x8 ./src/spidbg.o
 .group         0x00000000        0x8 ./src/spidbg.o
 .group         0x00000000        0x8 ./src/spidbg.o
 .group         0x00000000        0x8 ./src/spidbg.o
 .group         0x00000000        0x8 ./src/spidbg.o
 .group         0x00000000        0x8 ./src/spidbg.o
 .group         0x00000000        0x8 ./src/spidbg.o
 .group         0x00000000        0x8 ./src/spidbg.o
 .group         0x00000000        0x8 ./src/spidbg.o
 .group         0x00000000        0x8 ./src/spidbg.o
 .group         0x00000000        0x8 ./src/spidbg.o
 .group         0x00000000        0x8 ./src/spidbg.o
 .group         0x00000000        0x8 ./src/spidbg.o
 .group         0x00000000        0x8 ./src/spidbg.o
 .group         0x00000000        0x8 ./src/spidbg.o
 .group         0x00000000        0x8 ./src/spidbg.o
 .group         0x00000000        0x8 ./src/spidbg.o
 .group         0x00000000        0x8 ./src/spidbg.o
 .group         0x00000000        0x8 ./src/spidbg.o
 .group         0x00000000        0x8 ./src/spidbg.o
 .group         0x00000000        0x8 ./src/spidbg.o
 .group         0x00000000        0x8 ./src/spidbg.o
 .group         0x00000000        0x8 ./src/spidbg.o
 .group         0x00000000        0x8 ./src/spidbg.o
 .group         0x00000000        0x8 ./src/spidbg.o
 .group         0x00000000        0x8 ./src/spidbg.o
 .group         0x00000000        0x8 ./src/spidbg.o
 .group         0x00000000        0x8 ./src/spidbg.o
 .group         0x00000000        0x8 ./src/spidbg.o
 .debug_macro   0x00000000      0x850 ./src/spidbg.o
 .debug_macro   0x00000000       0x10 ./src/spidbg.o
 .debug_macro   0x00000000      0x12d ./src/spidbg.o
 .debug_macro   0x00000000       0xa0 ./src/spidbg.o
 .debug_macro   0x00000000       0xc4 ./src/spidbg.o
 .debug_macro   0x00000000       0x22 ./src/spidbg.o
 .debug_macro   0x00000000      0x16b ./src/spidbg.o
 .debug_macro   0x00000000       0x7c ./src/spidbg.o
 .debug_macro   0x00000000     0x197c ./src/spidbg.o
 .debug_macro   0x00000000       0x16 ./src/spidbg.o
 .debug_macro   0x00000000       0x64 ./src/spidbg.o
 .debug_macro   0x00000000      0x207 ./src/spidbg.o
 .debug_macro   0x00000000      0x5b2 ./src/spidbg.o
 .debug_macro   0x00000000      0x763 ./src/spidbg.o
 .debug_macro   0x00000000       0xd1 ./src/spidbg.o
 .debug_macro   0x00000000      0x10c ./src/spidbg.o
 .debug_macro   0x00000000       0x10 ./src/spidbg.o
 .debug_macro   0x00000000      0x249 ./src/spidbg.o
 .debug_macro   0x00000000       0xeb ./src/spidbg.o
 .debug_macro   0x00000000       0x16 ./src/spidbg.o
 .debug_macro   0x00000000       0x16 ./src/spidbg.o
 .debug_macro   0x00000000       0x25 ./src/spidbg.o
 .debug_macro   0x00000000       0x34 ./src/spidbg.o
 .debug_macro   0x00000000       0x1c ./src/spidbg.o
 .debug_macro   0x00000000       0xdb ./src/spidbg.o
 .debug_macro   0x00000000      0x1ba ./src/spidbg.o
 .debug_macro   0x00000000      0x5e0 ./src/spidbg.o
 .debug_macro   0x00000000       0x34 ./src/spidbg.o
 .debug_macro   0x00000000      0x8b4 ./src/spidbg.o
 .debug_macro   0x00000000      0x107 ./src/spidbg.o
 .group         0x00000000        0x8 ./src/spiglb.o
 .group         0x00000000        0x8 ./src/spiglb.o
 .group         0x00000000        0x8 ./src/spiglb.o
 .group         0x00000000        0x8 ./src/spiglb.o
 .group         0x00000000        0x8 ./src/spiglb.o
 .group         0x00000000        0x8 ./src/spiglb.o
 .group         0x00000000        0x8 ./src/spiglb.o
 .group         0x00000000        0x8 ./src/spiglb.o
 .group         0x00000000        0x8 ./src/spiglb.o
 .group         0x00000000        0x8 ./src/spiglb.o
 .group         0x00000000        0x8 ./src/spiglb.o
 .group         0x00000000        0x8 ./src/spiglb.o
 .group         0x00000000        0x8 ./src/spiglb.o
 .group         0x00000000        0x8 ./src/spiglb.o
 .group         0x00000000        0x8 ./src/spiglb.o
 .group         0x00000000        0x8 ./src/spiglb.o
 .group         0x00000000        0x8 ./src/spiglb.o
 .debug_macro   0x00000000      0x850 ./src/spiglb.o
 .debug_macro   0x00000000       0x10 ./src/spiglb.o
 .debug_macro   0x00000000      0x12d ./src/spiglb.o
 .debug_macro   0x00000000      0x5b2 ./src/spiglb.o
 .debug_macro   0x00000000      0x763 ./src/spiglb.o
 .debug_macro   0x00000000       0xd1 ./src/spiglb.o
 .debug_macro   0x00000000      0x10c ./src/spiglb.o
 .debug_macro   0x00000000       0x10 ./src/spiglb.o
 .debug_macro   0x00000000      0x249 ./src/spiglb.o
 .debug_macro   0x00000000       0xeb ./src/spiglb.o
 .debug_macro   0x00000000       0x16 ./src/spiglb.o
 .debug_macro   0x00000000       0x16 ./src/spiglb.o
 .debug_macro   0x00000000       0x25 ./src/spiglb.o
 .debug_macro   0x00000000       0x34 ./src/spiglb.o
 .debug_macro   0x00000000       0x1c ./src/spiglb.o
 .debug_macro   0x00000000       0xdb ./src/spiglb.o
 .debug_macro   0x00000000      0x207 ./src/spiglb.o
 .group         0x00000000        0x8 ./src/spimis.o
 .group         0x00000000        0x8 ./src/spimis.o
 .group         0x00000000        0x8 ./src/spimis.o
 .group         0x00000000        0x8 ./src/spimis.o
 .group         0x00000000        0x8 ./src/spimis.o
 .group         0x00000000        0x8 ./src/spimis.o
 .group         0x00000000        0x8 ./src/spimis.o
 .group         0x00000000        0x8 ./src/spimis.o
 .group         0x00000000        0x8 ./src/spimis.o
 .group         0x00000000        0x8 ./src/spimis.o
 .group         0x00000000        0x8 ./src/spimis.o
 .group         0x00000000        0x8 ./src/spimis.o
 .group         0x00000000        0x8 ./src/spimis.o
 .group         0x00000000        0x8 ./src/spimis.o
 .group         0x00000000        0x8 ./src/spimis.o
 .group         0x00000000        0x8 ./src/spimis.o
 .group         0x00000000        0x8 ./src/spimis.o
 .group         0x00000000        0x8 ./src/spimis.o
 .group         0x00000000        0x8 ./src/spimis.o
 .group         0x00000000        0x8 ./src/spimis.o
 .group         0x00000000        0x8 ./src/spimis.o
 .group         0x00000000        0x8 ./src/spimis.o
 .group         0x00000000        0x8 ./src/spimis.o
 .group         0x00000000        0x8 ./src/spimis.o
 .group         0x00000000        0x8 ./src/spimis.o
 .group         0x00000000        0x8 ./src/spimis.o
 .group         0x00000000        0x8 ./src/spimis.o
 .debug_macro   0x00000000      0x850 ./src/spimis.o
 .debug_macro   0x00000000       0x10 ./src/spimis.o
 .debug_macro   0x00000000      0x12d ./src/spimis.o
 .debug_macro   0x00000000       0xa0 ./src/spimis.o
 .debug_macro   0x00000000       0xc4 ./src/spimis.o
 .debug_macro   0x00000000       0x22 ./src/spimis.o
 .debug_macro   0x00000000      0x16b ./src/spimis.o
 .debug_macro   0x00000000       0x7c ./src/spimis.o
 .debug_macro   0x00000000     0x197c ./src/spimis.o
 .debug_macro   0x00000000       0x16 ./src/spimis.o
 .debug_macro   0x00000000       0x64 ./src/spimis.o
 .debug_macro   0x00000000      0x207 ./src/spimis.o
 .debug_macro   0x00000000      0x5b2 ./src/spimis.o
 .debug_macro   0x00000000      0x763 ./src/spimis.o
 .debug_macro   0x00000000       0xd1 ./src/spimis.o
 .debug_macro   0x00000000      0x10c ./src/spimis.o
 .debug_macro   0x00000000       0x10 ./src/spimis.o
 .debug_macro   0x00000000      0x249 ./src/spimis.o
 .debug_macro   0x00000000       0xeb ./src/spimis.o
 .debug_macro   0x00000000       0x16 ./src/spimis.o
 .debug_macro   0x00000000       0x16 ./src/spimis.o
 .debug_macro   0x00000000       0x25 ./src/spimis.o
 .debug_macro   0x00000000       0x34 ./src/spimis.o
 .debug_macro   0x00000000       0x1c ./src/spimis.o
 .debug_macro   0x00000000       0xdb ./src/spimis.o
 .debug_macro   0x00000000      0x5e0 ./src/spimis.o
 .debug_macro   0x00000000      0x107 ./src/spimis.o
 .group         0x00000000        0x8 ./src/spiutils.o
 .group         0x00000000        0x8 ./src/spiutils.o
 .group         0x00000000        0x8 ./src/spiutils.o
 .group         0x00000000        0x8 ./src/spiutils.o
 .group         0x00000000        0x8 ./src/spiutils.o
 .group         0x00000000        0x8 ./src/spiutils.o
 .group         0x00000000        0x8 ./src/spiutils.o
 .group         0x00000000        0x8 ./src/spiutils.o
 .group         0x00000000        0x8 ./src/spiutils.o
 .group         0x00000000        0x8 ./src/spiutils.o
 .group         0x00000000        0x8 ./src/spiutils.o
 .group         0x00000000        0x8 ./src/spiutils.o
 .group         0x00000000        0x8 ./src/spiutils.o
 .group         0x00000000        0x8 ./src/spiutils.o
 .group         0x00000000        0x8 ./src/spiutils.o
 .group         0x00000000        0x8 ./src/spiutils.o
 .group         0x00000000        0x8 ./src/spiutils.o
 .group         0x00000000        0x8 ./src/spiutils.o
 .group         0x00000000        0x8 ./src/spiutils.o
 .group         0x00000000        0x8 ./src/spiutils.o
 .group         0x00000000        0x8 ./src/spiutils.o
 .group         0x00000000        0x8 ./src/spiutils.o
 .group         0x00000000        0x8 ./src/spiutils.o
 .group         0x00000000        0x8 ./src/spiutils.o
 .group         0x00000000        0x8 ./src/spiutils.o
 .group         0x00000000        0x8 ./src/spiutils.o
 .group         0x00000000        0x8 ./src/spiutils.o
 .group         0x00000000        0x8 ./src/spiutils.o
 .group         0x00000000        0x8 ./src/spiutils.o
 .debug_macro   0x00000000      0x850 ./src/spiutils.o
 .debug_macro   0x00000000       0x10 ./src/spiutils.o
 .debug_macro   0x00000000      0x12d ./src/spiutils.o
 .debug_macro   0x00000000       0xa0 ./src/spiutils.o
 .debug_macro   0x00000000       0xc4 ./src/spiutils.o
 .debug_macro   0x00000000       0x22 ./src/spiutils.o
 .debug_macro   0x00000000      0x16b ./src/spiutils.o
 .debug_macro   0x00000000       0x7c ./src/spiutils.o
 .debug_macro   0x00000000     0x197c ./src/spiutils.o
 .debug_macro   0x00000000       0x16 ./src/spiutils.o
 .debug_macro   0x00000000       0x64 ./src/spiutils.o
 .debug_macro   0x00000000      0x207 ./src/spiutils.o
 .debug_macro   0x00000000      0x5b2 ./src/spiutils.o
 .debug_macro   0x00000000      0x763 ./src/spiutils.o
 .debug_macro   0x00000000       0xd1 ./src/spiutils.o
 .debug_macro   0x00000000      0x10c ./src/spiutils.o
 .debug_macro   0x00000000       0x10 ./src/spiutils.o
 .debug_macro   0x00000000      0x249 ./src/spiutils.o
 .debug_macro   0x00000000       0xeb ./src/spiutils.o
 .debug_macro   0x00000000       0x16 ./src/spiutils.o
 .debug_macro   0x00000000       0x16 ./src/spiutils.o
 .debug_macro   0x00000000       0x25 ./src/spiutils.o
 .debug_macro   0x00000000       0x34 ./src/spiutils.o
 .debug_macro   0x00000000       0x1c ./src/spiutils.o
 .debug_macro   0x00000000       0xdb ./src/spiutils.o
 .debug_macro   0x00000000      0x1ba ./src/spiutils.o
 .debug_macro   0x00000000      0x5e0 ./src/spiutils.o
 .debug_macro   0x00000000       0x34 ./src/spiutils.o
 .debug_macro   0x00000000      0x8b4 ./src/spiutils.o
 .group         0x00000000        0x8 ./src/spiwin2.o
 .group         0x00000000        0x8 ./src/spiwin2.o
 .group         0x00000000        0x8 ./src/spiwin2.o
 .group         0x00000000        0x8 ./src/spiwin2.o
 .group         0x00000000        0x8 ./src/spiwin2.o
 .group         0x00000000        0x8 ./src/spiwin2.o
 .group         0x00000000        0x8 ./src/spiwin2.o
 .group         0x00000000        0x8 ./src/spiwin2.o
 .group         0x00000000        0x8 ./src/spiwin2.o
 .group         0x00000000        0x8 ./src/spiwin2.o
 .group         0x00000000        0x8 ./src/spiwin2.o
 .group         0x00000000        0x8 ./src/spiwin2.o
 .group         0x00000000        0x8 ./src/spiwin2.o
 .group         0x00000000        0x8 ./src/spiwin2.o
 .group         0x00000000        0x8 ./src/spiwin2.o
 .group         0x00000000        0x8 ./src/spiwin2.o
 .group         0x00000000        0x8 ./src/spiwin2.o
 .group         0x00000000        0x8 ./src/spiwin2.o
 .group         0x00000000        0x8 ./src/spiwin2.o
 .group         0x00000000        0x8 ./src/spiwin2.o
 .group         0x00000000        0x8 ./src/spiwin2.o
 .group         0x00000000        0x8 ./src/spiwin2.o
 .group         0x00000000        0x8 ./src/spiwin2.o
 .group         0x00000000        0x8 ./src/spiwin2.o
 .group         0x00000000        0x8 ./src/spiwin2.o
 .group         0x00000000        0x8 ./src/spiwin2.o
 .group         0x00000000        0x8 ./src/spiwin2.o
 .group         0x00000000        0x8 ./src/spiwin2.o
 .group         0x00000000        0x8 ./src/spiwin2.o
 .group         0x00000000        0x8 ./src/spiwin2.o
 .debug_macro   0x00000000      0x850 ./src/spiwin2.o
 .debug_macro   0x00000000       0x10 ./src/spiwin2.o
 .debug_macro   0x00000000      0x12d ./src/spiwin2.o
 .debug_macro   0x00000000       0xa0 ./src/spiwin2.o
 .debug_macro   0x00000000       0xc4 ./src/spiwin2.o
 .debug_macro   0x00000000       0x22 ./src/spiwin2.o
 .debug_macro   0x00000000      0x16b ./src/spiwin2.o
 .debug_macro   0x00000000       0x7c ./src/spiwin2.o
 .debug_macro   0x00000000     0x197c ./src/spiwin2.o
 .debug_macro   0x00000000       0x16 ./src/spiwin2.o
 .debug_macro   0x00000000       0x64 ./src/spiwin2.o
 .debug_macro   0x00000000      0x207 ./src/spiwin2.o
 .debug_macro   0x00000000      0x5b2 ./src/spiwin2.o
 .debug_macro   0x00000000      0x763 ./src/spiwin2.o
 .debug_macro   0x00000000       0xd1 ./src/spiwin2.o
 .debug_macro   0x00000000      0x10c ./src/spiwin2.o
 .debug_macro   0x00000000       0x10 ./src/spiwin2.o
 .debug_macro   0x00000000      0x249 ./src/spiwin2.o
 .debug_macro   0x00000000       0xeb ./src/spiwin2.o
 .debug_macro   0x00000000       0x16 ./src/spiwin2.o
 .debug_macro   0x00000000       0x16 ./src/spiwin2.o
 .debug_macro   0x00000000       0x25 ./src/spiwin2.o
 .debug_macro   0x00000000       0x34 ./src/spiwin2.o
 .debug_macro   0x00000000       0x1c ./src/spiwin2.o
 .debug_macro   0x00000000       0xdb ./src/spiwin2.o
 .debug_macro   0x00000000      0x1ba ./src/spiwin2.o
 .debug_macro   0x00000000      0x5e0 ./src/spiwin2.o
 .debug_macro   0x00000000       0x34 ./src/spiwin2.o
 .debug_macro   0x00000000      0x8b4 ./src/spiwin2.o
 .debug_macro   0x00000000       0x34 ./src/spiwin2.o
 .group         0x00000000        0x8 ./src/target.o
 .group         0x00000000        0x8 ./src/target.o
 .group         0x00000000        0x8 ./src/target.o
 .group         0x00000000        0x8 ./src/target.o
 .group         0x00000000        0x8 ./src/target.o
 .debug_macro   0x00000000      0x850 ./src/target.o
 .debug_macro   0x00000000     0x197c ./src/target.o
 .debug_macro   0x00000000       0x1c ./src/target.o
 .debug_macro   0x00000000      0x124 ./src/target.o
 .debug_macro   0x00000000       0x64 ./src/target.o
 .group         0x00000000        0x8 ./src/vdip.o
 .group         0x00000000        0x8 ./src/vdip.o
 .group         0x00000000        0x8 ./src/vdip.o
 .group         0x00000000        0x8 ./src/vdip.o
 .group         0x00000000        0x8 ./src/vdip.o
 .group         0x00000000        0x8 ./src/vdip.o
 .group         0x00000000        0x8 ./src/vdip.o
 .group         0x00000000        0x8 ./src/vdip.o
 .group         0x00000000        0x8 ./src/vdip.o
 .group         0x00000000        0x8 ./src/vdip.o
 .group         0x00000000        0x8 ./src/vdip.o
 .group         0x00000000        0x8 ./src/vdip.o
 .group         0x00000000        0x8 ./src/vdip.o
 .group         0x00000000        0x8 ./src/vdip.o
 .group         0x00000000        0x8 ./src/vdip.o
 .group         0x00000000        0x8 ./src/vdip.o
 .group         0x00000000        0x8 ./src/vdip.o
 .group         0x00000000        0x8 ./src/vdip.o
 .group         0x00000000        0x8 ./src/vdip.o
 .group         0x00000000        0x8 ./src/vdip.o
 .group         0x00000000        0x8 ./src/vdip.o
 .debug_macro   0x00000000      0x850 ./src/vdip.o
 .debug_macro   0x00000000     0x197c ./src/vdip.o
 .debug_macro   0x00000000       0x10 ./src/vdip.o
 .debug_macro   0x00000000      0x12d ./src/vdip.o
 .debug_macro   0x00000000       0x28 ./src/vdip.o
 .debug_macro   0x00000000       0x16 ./src/vdip.o
 .debug_macro   0x00000000       0x64 ./src/vdip.o
 .debug_macro   0x00000000      0x207 ./src/vdip.o
 .debug_macro   0x00000000       0xd1 ./src/vdip.o
 .debug_macro   0x00000000      0x5b2 ./src/vdip.o
 .debug_macro   0x00000000      0x763 ./src/vdip.o
 .debug_macro   0x00000000      0x10c ./src/vdip.o
 .debug_macro   0x00000000       0x10 ./src/vdip.o
 .debug_macro   0x00000000      0x249 ./src/vdip.o
 .debug_macro   0x00000000       0xeb ./src/vdip.o
 .debug_macro   0x00000000       0x16 ./src/vdip.o
 .debug_macro   0x00000000       0x16 ./src/vdip.o
 .debug_macro   0x00000000       0x25 ./src/vdip.o
 .debug_macro   0x00000000       0x34 ./src/vdip.o
 .debug_macro   0x00000000       0x1c ./src/vdip.o
 .debug_macro   0x00000000       0xdb ./src/vdip.o
 .group         0x00000000        0x8 ./src/xxtea.o
 .group         0x00000000        0x8 ./src/xxtea.o
 .group         0x00000000        0x8 ./src/xxtea.o
 .group         0x00000000        0x8 ./src/xxtea.o
 .group         0x00000000        0x8 ./src/xxtea.o
 .group         0x00000000        0x8 ./src/xxtea.o
 .group         0x00000000        0x8 ./src/xxtea.o
 .group         0x00000000        0x8 ./src/xxtea.o
 .group         0x00000000        0x8 ./src/xxtea.o
 .group         0x00000000        0x8 ./src/xxtea.o
 .group         0x00000000        0x8 ./src/xxtea.o
 .group         0x00000000        0x8 ./src/xxtea.o
 .group         0x00000000        0x8 ./src/xxtea.o
 .group         0x00000000        0x8 ./src/xxtea.o
 .group         0x00000000        0x8 ./src/xxtea.o
 .group         0x00000000        0x8 ./src/xxtea.o
 .group         0x00000000        0x8 ./src/xxtea.o
 .group         0x00000000        0x8 ./src/xxtea.o
 .group         0x00000000        0x8 ./src/xxtea.o
 .group         0x00000000        0x8 ./src/xxtea.o
 .group         0x00000000        0x8 ./src/xxtea.o
 .group         0x00000000        0x8 ./src/xxtea.o
 .group         0x00000000        0x8 ./src/xxtea.o
 .group         0x00000000        0x8 ./src/xxtea.o
 .group         0x00000000        0x8 ./src/xxtea.o
 .group         0x00000000        0x8 ./src/xxtea.o
 .group         0x00000000        0x8 ./src/xxtea.o
 .group         0x00000000        0x8 ./src/xxtea.o
 .group         0x00000000        0x8 ./src/xxtea.o
 .group         0x00000000        0x8 ./src/xxtea.o
 .debug_macro   0x00000000      0x850 ./src/xxtea.o
 .debug_macro   0x00000000       0x10 ./src/xxtea.o
 .debug_macro   0x00000000      0x12d ./src/xxtea.o
 .debug_macro   0x00000000       0xa0 ./src/xxtea.o
 .debug_macro   0x00000000       0xc4 ./src/xxtea.o
 .debug_macro   0x00000000       0x22 ./src/xxtea.o
 .debug_macro   0x00000000      0x16b ./src/xxtea.o
 .debug_macro   0x00000000       0x7c ./src/xxtea.o
 .debug_macro   0x00000000      0x5b2 ./src/xxtea.o
 .debug_macro   0x00000000      0x763 ./src/xxtea.o
 .debug_macro   0x00000000       0xd1 ./src/xxtea.o
 .debug_macro   0x00000000      0x10c ./src/xxtea.o
 .debug_macro   0x00000000       0x10 ./src/xxtea.o
 .debug_macro   0x00000000      0x249 ./src/xxtea.o
 .debug_macro   0x00000000       0xeb ./src/xxtea.o
 .debug_macro   0x00000000       0x16 ./src/xxtea.o
 .debug_macro   0x00000000       0x16 ./src/xxtea.o
 .debug_macro   0x00000000       0x25 ./src/xxtea.o
 .debug_macro   0x00000000       0x34 ./src/xxtea.o
 .debug_macro   0x00000000       0x1c ./src/xxtea.o
 .debug_macro   0x00000000       0xdb ./src/xxtea.o
 .debug_macro   0x00000000      0x1ba ./src/xxtea.o
 .debug_macro   0x00000000      0x5e0 ./src/xxtea.o
 .debug_macro   0x00000000       0x34 ./src/xxtea.o
 .debug_macro   0x00000000      0x8b4 ./src/xxtea.o
 .debug_macro   0x00000000       0x34 ./src/xxtea.o
 .debug_macro   0x00000000       0x10 ./src/xxtea.o
 .debug_macro   0x00000000       0x16 ./src/xxtea.o
 .debug_macro   0x00000000       0x91 ./src/xxtea.o
 .debug_macro   0x00000000       0xe7 ./src/xxtea.o
 .group         0x00000000        0x8 ./ff9/src/option/ccsbcs.o
 .group         0x00000000        0x8 ./ff9/src/option/ccsbcs.o
 .group         0x00000000        0x8 ./ff9/src/option/ccsbcs.o
 .group         0x00000000        0x8 ./ff9/src/option/ccsbcs.o
 .debug_macro   0x00000000      0x850 ./ff9/src/option/ccsbcs.o
 .debug_macro   0x00000000       0x1c ./ff9/src/option/ccsbcs.o
 .debug_macro   0x00000000       0x91 ./ff9/src/option/ccsbcs.o
 .debug_macro   0x00000000       0xee ./ff9/src/option/ccsbcs.o
 .group         0x00000000        0x8 ./ff9/src/option/syscall.o
 .group         0x00000000        0x8 ./ff9/src/option/syscall.o
 .group         0x00000000        0x8 ./ff9/src/option/syscall.o
 .group         0x00000000        0x8 ./ff9/src/option/syscall.o
 .group         0x00000000        0x8 ./ff9/src/option/syscall.o
 .group         0x00000000        0x8 ./ff9/src/option/syscall.o
 .group         0x00000000        0x8 ./ff9/src/option/syscall.o
 .debug_macro   0x00000000      0x850 ./ff9/src/option/syscall.o
 .debug_macro   0x00000000       0x10 ./ff9/src/option/syscall.o
 .debug_macro   0x00000000      0x12d ./ff9/src/option/syscall.o
 .debug_macro   0x00000000       0x28 ./ff9/src/option/syscall.o
 .debug_macro   0x00000000       0x16 ./ff9/src/option/syscall.o
 .debug_macro   0x00000000       0x91 ./ff9/src/option/syscall.o
 .debug_macro   0x00000000       0xee ./ff9/src/option/syscall.o
 .group         0x00000000        0x8 ./ff9/src/ff.o
 .group         0x00000000        0x8 ./ff9/src/ff.o
 .group         0x00000000        0x8 ./ff9/src/ff.o
 .group         0x00000000        0x8 ./ff9/src/ff.o
 .group         0x00000000        0x8 ./ff9/src/ff.o
 .group         0x00000000        0x8 ./ff9/src/ff.o
 .group         0x00000000        0x8 ./ff9/src/ff.o
 .group         0x00000000        0x8 ./ff9/src/ff.o
 .group         0x00000000        0x8 ./ff9/src/ff.o
 .debug_macro   0x00000000      0x850 ./ff9/src/ff.o
 .debug_macro   0x00000000     0x197c ./ff9/src/ff.o
 .debug_macro   0x00000000       0x1c ./ff9/src/ff.o
 .debug_macro   0x00000000       0x91 ./ff9/src/ff.o
 .debug_macro   0x00000000       0xee ./ff9/src/ff.o
 .debug_macro   0x00000000       0x10 ./ff9/src/ff.o
 .debug_macro   0x00000000       0x82 ./ff9/src/ff.o
 .debug_macro   0x00000000       0x10 ./ff9/src/ff.o
 .group         0x00000000        0x8 ./CANopen_stack/LPC2388/CO_driver.o
 .group         0x00000000        0x8 ./CANopen_stack/LPC2388/CO_driver.o
 .group         0x00000000        0x8 ./CANopen_stack/LPC2388/CO_driver.o
 .group         0x00000000        0x8 ./CANopen_stack/LPC2388/CO_driver.o
 .group         0x00000000        0x8 ./CANopen_stack/LPC2388/CO_driver.o
 .group         0x00000000        0x8 ./CANopen_stack/LPC2388/CO_driver.o
 .group         0x00000000        0x8 ./CANopen_stack/LPC2388/CO_driver.o
 .group         0x00000000        0x8 ./CANopen_stack/LPC2388/CO_driver.o
 .group         0x00000000        0x8 ./CANopen_stack/LPC2388/CO_driver.o
 .group         0x00000000        0x8 ./CANopen_stack/LPC2388/CO_driver.o
 .group         0x00000000        0x8 ./CANopen_stack/LPC2388/CO_driver.o
 .group         0x00000000        0x8 ./CANopen_stack/LPC2388/CO_driver.o
 .group         0x00000000        0x8 ./CANopen_stack/LPC2388/CO_driver.o
 .group         0x00000000        0x8 ./CANopen_stack/LPC2388/CO_driver.o
 .group         0x00000000        0x8 ./CANopen_stack/LPC2388/CO_driver.o
 .group         0x00000000        0x8 ./CANopen_stack/LPC2388/CO_driver.o
 .debug_macro   0x00000000      0x850 ./CANopen_stack/LPC2388/CO_driver.o
 .debug_macro   0x00000000     0x197c ./CANopen_stack/LPC2388/CO_driver.o
 .debug_macro   0x00000000       0x1c ./CANopen_stack/LPC2388/CO_driver.o
 .debug_macro   0x00000000       0x64 ./CANopen_stack/LPC2388/CO_driver.o
 .debug_macro   0x00000000       0x10 ./CANopen_stack/LPC2388/CO_driver.o
 .debug_macro   0x00000000      0x12d ./CANopen_stack/LPC2388/CO_driver.o
 .debug_macro   0x00000000       0x9a ./CANopen_stack/LPC2388/CO_driver.o
 .debug_macro   0x00000000       0x22 ./CANopen_stack/LPC2388/CO_driver.o
 .debug_macro   0x00000000      0x207 ./CANopen_stack/LPC2388/CO_driver.o
 .debug_macro   0x00000000       0x16 ./CANopen_stack/LPC2388/CO_driver.o
 .debug_macro   0x00000000      0x124 ./CANopen_stack/LPC2388/CO_driver.o
 .debug_macro   0x00000000      0x107 ./CANopen_stack/LPC2388/CO_driver.o
 .debug_macro   0x00000000       0xd1 ./CANopen_stack/LPC2388/CO_driver.o
 .debug_macro   0x00000000      0x10c ./CANopen_stack/LPC2388/CO_driver.o
 .debug_macro   0x00000000       0x10 ./CANopen_stack/LPC2388/CO_driver.o
 .debug_macro   0x00000000       0x88 ./CANopen_stack/LPC2388/CO_driver.o
 .group         0x00000000        0x8 ./CANopen_stack/LPC2388/co_od.o
 .group         0x00000000        0x8 ./CANopen_stack/LPC2388/co_od.o
 .group         0x00000000        0x8 ./CANopen_stack/LPC2388/co_od.o
 .group         0x00000000        0x8 ./CANopen_stack/LPC2388/co_od.o
 .group         0x00000000        0x8 ./CANopen_stack/LPC2388/co_od.o
 .group         0x00000000        0x8 ./CANopen_stack/LPC2388/co_od.o
 .group         0x00000000        0x8 ./CANopen_stack/LPC2388/co_od.o
 .group         0x00000000        0x8 ./CANopen_stack/LPC2388/co_od.o
 .group         0x00000000        0x8 ./CANopen_stack/LPC2388/co_od.o
 .group         0x00000000        0x8 ./CANopen_stack/LPC2388/co_od.o
 .group         0x00000000        0x8 ./CANopen_stack/LPC2388/co_od.o
 .debug_macro   0x00000000      0x850 ./CANopen_stack/LPC2388/co_od.o
 .debug_macro   0x00000000       0x1c ./CANopen_stack/LPC2388/co_od.o
 .debug_macro   0x00000000       0x64 ./CANopen_stack/LPC2388/co_od.o
 .debug_macro   0x00000000       0x10 ./CANopen_stack/LPC2388/co_od.o
 .debug_macro   0x00000000      0x12d ./CANopen_stack/LPC2388/co_od.o
 .debug_macro   0x00000000       0x9a ./CANopen_stack/LPC2388/co_od.o
 .debug_macro   0x00000000       0x22 ./CANopen_stack/LPC2388/co_od.o
 .debug_macro   0x00000000      0x107 ./CANopen_stack/LPC2388/co_od.o
 .debug_macro   0x00000000      0x263 ./CANopen_stack/LPC2388/co_od.o
 .debug_macro   0x00000000       0x49 ./CANopen_stack/LPC2388/co_od.o
 .group         0x00000000        0x8 ./CANopen_stack/CANopen.o
 .group         0x00000000        0x8 ./CANopen_stack/CANopen.o
 .group         0x00000000        0x8 ./CANopen_stack/CANopen.o
 .group         0x00000000        0x8 ./CANopen_stack/CANopen.o
 .group         0x00000000        0x8 ./CANopen_stack/CANopen.o
 .group         0x00000000        0x8 ./CANopen_stack/CANopen.o
 .group         0x00000000        0x8 ./CANopen_stack/CANopen.o
 .group         0x00000000        0x8 ./CANopen_stack/CANopen.o
 .group         0x00000000        0x8 ./CANopen_stack/CANopen.o
 .group         0x00000000        0x8 ./CANopen_stack/CANopen.o
 .group         0x00000000        0x8 ./CANopen_stack/CANopen.o
 .group         0x00000000        0x8 ./CANopen_stack/CANopen.o
 .group         0x00000000        0x8 ./CANopen_stack/CANopen.o
 .debug_macro   0x00000000      0x850 ./CANopen_stack/CANopen.o
 .debug_macro   0x00000000       0x1c ./CANopen_stack/CANopen.o
 .debug_macro   0x00000000       0x64 ./CANopen_stack/CANopen.o
 .debug_macro   0x00000000       0x10 ./CANopen_stack/CANopen.o
 .debug_macro   0x00000000      0x12d ./CANopen_stack/CANopen.o
 .debug_macro   0x00000000       0x9a ./CANopen_stack/CANopen.o
 .debug_macro   0x00000000       0x22 ./CANopen_stack/CANopen.o
 .debug_macro   0x00000000      0x107 ./CANopen_stack/CANopen.o
 .debug_macro   0x00000000       0x82 ./CANopen_stack/CANopen.o
 .debug_macro   0x00000000      0x263 ./CANopen_stack/CANopen.o
 .debug_macro   0x00000000       0x49 ./CANopen_stack/CANopen.o
 .debug_macro   0x00000000      0x15a ./CANopen_stack/CANopen.o
 .debug_macro   0x00000000       0x78 ./CANopen_stack/CANopen.o
 .group         0x00000000        0x8 ./CANopen_stack/CO_Emergency.o
 .group         0x00000000        0x8 ./CANopen_stack/CO_Emergency.o
 .group         0x00000000        0x8 ./CANopen_stack/CO_Emergency.o
 .group         0x00000000        0x8 ./CANopen_stack/CO_Emergency.o
 .group         0x00000000        0x8 ./CANopen_stack/CO_Emergency.o
 .group         0x00000000        0x8 ./CANopen_stack/CO_Emergency.o
 .group         0x00000000        0x8 ./CANopen_stack/CO_Emergency.o
 .group         0x00000000        0x8 ./CANopen_stack/CO_Emergency.o
 .group         0x00000000        0x8 ./CANopen_stack/CO_Emergency.o
 .group         0x00000000        0x8 ./CANopen_stack/CO_Emergency.o
 .group         0x00000000        0x8 ./CANopen_stack/CO_Emergency.o
 .debug_macro   0x00000000      0x850 ./CANopen_stack/CO_Emergency.o
 .debug_macro   0x00000000       0x1c ./CANopen_stack/CO_Emergency.o
 .debug_macro   0x00000000       0x64 ./CANopen_stack/CO_Emergency.o
 .debug_macro   0x00000000       0x10 ./CANopen_stack/CO_Emergency.o
 .debug_macro   0x00000000      0x12d ./CANopen_stack/CO_Emergency.o
 .debug_macro   0x00000000       0x9a ./CANopen_stack/CO_Emergency.o
 .debug_macro   0x00000000       0x22 ./CANopen_stack/CO_Emergency.o
 .debug_macro   0x00000000      0x107 ./CANopen_stack/CO_Emergency.o
 .debug_macro   0x00000000       0x82 ./CANopen_stack/CO_Emergency.o
 .debug_macro   0x00000000       0x49 ./CANopen_stack/CO_Emergency.o
 .debug_macro   0x00000000      0x15a ./CANopen_stack/CO_Emergency.o
 .group         0x00000000        0x8 ./CANopen_stack/CO_HBconsumer.o
 .group         0x00000000        0x8 ./CANopen_stack/CO_HBconsumer.o
 .group         0x00000000        0x8 ./CANopen_stack/CO_HBconsumer.o
 .group         0x00000000        0x8 ./CANopen_stack/CO_HBconsumer.o
 .group         0x00000000        0x8 ./CANopen_stack/CO_HBconsumer.o
 .group         0x00000000        0x8 ./CANopen_stack/CO_HBconsumer.o
 .group         0x00000000        0x8 ./CANopen_stack/CO_HBconsumer.o
 .group         0x00000000        0x8 ./CANopen_stack/CO_HBconsumer.o
 .group         0x00000000        0x8 ./CANopen_stack/CO_HBconsumer.o
 .group         0x00000000        0x8 ./CANopen_stack/CO_HBconsumer.o
 .group         0x00000000        0x8 ./CANopen_stack/CO_HBconsumer.o
 .group         0x00000000        0x8 ./CANopen_stack/CO_HBconsumer.o
 .debug_macro   0x00000000      0x850 ./CANopen_stack/CO_HBconsumer.o
 .debug_macro   0x00000000       0x1c ./CANopen_stack/CO_HBconsumer.o
 .debug_macro   0x00000000       0x64 ./CANopen_stack/CO_HBconsumer.o
 .debug_macro   0x00000000       0x10 ./CANopen_stack/CO_HBconsumer.o
 .debug_macro   0x00000000      0x12d ./CANopen_stack/CO_HBconsumer.o
 .debug_macro   0x00000000       0x9a ./CANopen_stack/CO_HBconsumer.o
 .debug_macro   0x00000000       0x22 ./CANopen_stack/CO_HBconsumer.o
 .debug_macro   0x00000000      0x107 ./CANopen_stack/CO_HBconsumer.o
 .debug_macro   0x00000000       0x82 ./CANopen_stack/CO_HBconsumer.o
 .debug_macro   0x00000000       0x49 ./CANopen_stack/CO_HBconsumer.o
 .debug_macro   0x00000000      0x15a ./CANopen_stack/CO_HBconsumer.o
 .debug_macro   0x00000000       0x78 ./CANopen_stack/CO_HBconsumer.o
 .group         0x00000000        0x8 ./CANopen_stack/CO_NMT_Heartbeat.o
 .group         0x00000000        0x8 ./CANopen_stack/CO_NMT_Heartbeat.o
 .group         0x00000000        0x8 ./CANopen_stack/CO_NMT_Heartbeat.o
 .group         0x00000000        0x8 ./CANopen_stack/CO_NMT_Heartbeat.o
 .group         0x00000000        0x8 ./CANopen_stack/CO_NMT_Heartbeat.o
 .group         0x00000000        0x8 ./CANopen_stack/CO_NMT_Heartbeat.o
 .group         0x00000000        0x8 ./CANopen_stack/CO_NMT_Heartbeat.o
 .group         0x00000000        0x8 ./CANopen_stack/CO_NMT_Heartbeat.o
 .group         0x00000000        0x8 ./CANopen_stack/CO_NMT_Heartbeat.o
 .group         0x00000000        0x8 ./CANopen_stack/CO_NMT_Heartbeat.o
 .group         0x00000000        0x8 ./CANopen_stack/CO_NMT_Heartbeat.o
 .group         0x00000000        0x8 ./CANopen_stack/CO_NMT_Heartbeat.o
 .debug_macro   0x00000000      0x850 ./CANopen_stack/CO_NMT_Heartbeat.o
 .debug_macro   0x00000000       0x1c ./CANopen_stack/CO_NMT_Heartbeat.o
 .debug_macro   0x00000000       0x64 ./CANopen_stack/CO_NMT_Heartbeat.o
 .debug_macro   0x00000000       0x10 ./CANopen_stack/CO_NMT_Heartbeat.o
 .debug_macro   0x00000000      0x12d ./CANopen_stack/CO_NMT_Heartbeat.o
 .debug_macro   0x00000000       0x9a ./CANopen_stack/CO_NMT_Heartbeat.o
 .debug_macro   0x00000000       0x22 ./CANopen_stack/CO_NMT_Heartbeat.o
 .debug_macro   0x00000000      0x107 ./CANopen_stack/CO_NMT_Heartbeat.o
 .debug_macro   0x00000000       0x82 ./CANopen_stack/CO_NMT_Heartbeat.o
 .debug_macro   0x00000000       0x49 ./CANopen_stack/CO_NMT_Heartbeat.o
 .debug_macro   0x00000000      0x15a ./CANopen_stack/CO_NMT_Heartbeat.o
 .debug_macro   0x00000000       0x78 ./CANopen_stack/CO_NMT_Heartbeat.o
 .group         0x00000000        0x8 ./CANopen_stack/CO_PDO.o
 .group         0x00000000        0x8 ./CANopen_stack/CO_PDO.o
 .group         0x00000000        0x8 ./CANopen_stack/CO_PDO.o
 .group         0x00000000        0x8 ./CANopen_stack/CO_PDO.o
 .group         0x00000000        0x8 ./CANopen_stack/CO_PDO.o
 .group         0x00000000        0x8 ./CANopen_stack/CO_PDO.o
 .group         0x00000000        0x8 ./CANopen_stack/CO_PDO.o
 .group         0x00000000        0x8 ./CANopen_stack/CO_PDO.o
 .group         0x00000000        0x8 ./CANopen_stack/CO_PDO.o
 .group         0x00000000        0x8 ./CANopen_stack/CO_PDO.o
 .group         0x00000000        0x8 ./CANopen_stack/CO_PDO.o
 .group         0x00000000        0x8 ./CANopen_stack/CO_PDO.o
 .debug_macro   0x00000000      0x850 ./CANopen_stack/CO_PDO.o
 .debug_macro   0x00000000       0x1c ./CANopen_stack/CO_PDO.o
 .debug_macro   0x00000000       0x64 ./CANopen_stack/CO_PDO.o
 .debug_macro   0x00000000       0x10 ./CANopen_stack/CO_PDO.o
 .debug_macro   0x00000000      0x12d ./CANopen_stack/CO_PDO.o
 .debug_macro   0x00000000       0x9a ./CANopen_stack/CO_PDO.o
 .debug_macro   0x00000000       0x22 ./CANopen_stack/CO_PDO.o
 .debug_macro   0x00000000      0x107 ./CANopen_stack/CO_PDO.o
 .debug_macro   0x00000000       0x82 ./CANopen_stack/CO_PDO.o
 .debug_macro   0x00000000       0x49 ./CANopen_stack/CO_PDO.o
 .debug_macro   0x00000000      0x15a ./CANopen_stack/CO_PDO.o
 .debug_macro   0x00000000       0x78 ./CANopen_stack/CO_PDO.o
 .group         0x00000000        0x8 ./CANopen_stack/CO_SDO.o
 .group         0x00000000        0x8 ./CANopen_stack/CO_SDO.o
 .group         0x00000000        0x8 ./CANopen_stack/CO_SDO.o
 .group         0x00000000        0x8 ./CANopen_stack/CO_SDO.o
 .group         0x00000000        0x8 ./CANopen_stack/CO_SDO.o
 .group         0x00000000        0x8 ./CANopen_stack/CO_SDO.o
 .group         0x00000000        0x8 ./CANopen_stack/CO_SDO.o
 .group         0x00000000        0x8 ./CANopen_stack/CO_SDO.o
 .group         0x00000000        0x8 ./CANopen_stack/CO_SDO.o
 .group         0x00000000        0x8 ./CANopen_stack/CO_SDO.o
 .debug_macro   0x00000000      0x850 ./CANopen_stack/CO_SDO.o
 .debug_macro   0x00000000       0x1c ./CANopen_stack/CO_SDO.o
 .debug_macro   0x00000000       0x64 ./CANopen_stack/CO_SDO.o
 .debug_macro   0x00000000       0x10 ./CANopen_stack/CO_SDO.o
 .debug_macro   0x00000000      0x12d ./CANopen_stack/CO_SDO.o
 .debug_macro   0x00000000       0x9a ./CANopen_stack/CO_SDO.o
 .debug_macro   0x00000000       0x22 ./CANopen_stack/CO_SDO.o
 .debug_macro   0x00000000      0x107 ./CANopen_stack/CO_SDO.o
 .debug_macro   0x00000000       0x82 ./CANopen_stack/CO_SDO.o
 .debug_macro   0x00000000       0x49 ./CANopen_stack/CO_SDO.o
 .group         0x00000000        0x8 ./CANopen_stack/CO_SDOmaster.o
 .group         0x00000000        0x8 ./CANopen_stack/CO_SDOmaster.o
 .group         0x00000000        0x8 ./CANopen_stack/CO_SDOmaster.o
 .group         0x00000000        0x8 ./CANopen_stack/CO_SDOmaster.o
 .group         0x00000000        0x8 ./CANopen_stack/CO_SDOmaster.o
 .group         0x00000000        0x8 ./CANopen_stack/CO_SDOmaster.o
 .group         0x00000000        0x8 ./CANopen_stack/CO_SDOmaster.o
 .group         0x00000000        0x8 ./CANopen_stack/CO_SDOmaster.o
 .group         0x00000000        0x8 ./CANopen_stack/CO_SDOmaster.o
 .group         0x00000000        0x8 ./CANopen_stack/CO_SDOmaster.o
 .debug_macro   0x00000000      0x850 ./CANopen_stack/CO_SDOmaster.o
 .debug_macro   0x00000000       0x1c ./CANopen_stack/CO_SDOmaster.o
 .debug_macro   0x00000000       0x64 ./CANopen_stack/CO_SDOmaster.o
 .debug_macro   0x00000000       0x10 ./CANopen_stack/CO_SDOmaster.o
 .debug_macro   0x00000000      0x12d ./CANopen_stack/CO_SDOmaster.o
 .debug_macro   0x00000000       0x9a ./CANopen_stack/CO_SDOmaster.o
 .debug_macro   0x00000000       0x22 ./CANopen_stack/CO_SDOmaster.o
 .debug_macro   0x00000000      0x107 ./CANopen_stack/CO_SDOmaster.o
 .debug_macro   0x00000000       0x82 ./CANopen_stack/CO_SDOmaster.o
 .debug_macro   0x00000000       0x49 ./CANopen_stack/CO_SDOmaster.o
 .group         0x00000000        0x8 ./CANopen_stack/CO_SYNC.o
 .group         0x00000000        0x8 ./CANopen_stack/CO_SYNC.o
 .group         0x00000000        0x8 ./CANopen_stack/CO_SYNC.o
 .group         0x00000000        0x8 ./CANopen_stack/CO_SYNC.o
 .group         0x00000000        0x8 ./CANopen_stack/CO_SYNC.o
 .group         0x00000000        0x8 ./CANopen_stack/CO_SYNC.o
 .group         0x00000000        0x8 ./CANopen_stack/CO_SYNC.o
 .group         0x00000000        0x8 ./CANopen_stack/CO_SYNC.o
 .group         0x00000000        0x8 ./CANopen_stack/CO_SYNC.o
 .group         0x00000000        0x8 ./CANopen_stack/CO_SYNC.o
 .group         0x00000000        0x8 ./CANopen_stack/CO_SYNC.o
 .group         0x00000000        0x8 ./CANopen_stack/CO_SYNC.o
 .debug_macro   0x00000000      0x850 ./CANopen_stack/CO_SYNC.o
 .debug_macro   0x00000000       0x1c ./CANopen_stack/CO_SYNC.o
 .debug_macro   0x00000000       0x64 ./CANopen_stack/CO_SYNC.o
 .debug_macro   0x00000000       0x10 ./CANopen_stack/CO_SYNC.o
 .debug_macro   0x00000000      0x12d ./CANopen_stack/CO_SYNC.o
 .debug_macro   0x00000000       0x9a ./CANopen_stack/CO_SYNC.o
 .debug_macro   0x00000000       0x22 ./CANopen_stack/CO_SYNC.o
 .debug_macro   0x00000000      0x107 ./CANopen_stack/CO_SYNC.o
 .debug_macro   0x00000000       0x82 ./CANopen_stack/CO_SYNC.o
 .debug_macro   0x00000000       0x49 ./CANopen_stack/CO_SYNC.o
 .debug_macro   0x00000000      0x15a ./CANopen_stack/CO_SYNC.o
 .debug_macro   0x00000000       0x78 ./CANopen_stack/CO_SYNC.o

Memory Configuration

Name             Origin             Length             Attributes
MFlash512        0x00000000         0x0007e000         xr
Ram64            0x40000000         0x00010000         xrw
RAM_ETH_16       0x7fe00000         0x00004000         xrw
RAM_USB_16       0x7fd00000         0x00004000         xrw
RAM_RTC_2        0xe0084000         0x00000800         xrw
AZ4186_NVRAM     0x81000000         0x00008000         rw
*default*        0x00000000         0xffffffff

Linker script and memory map

LOAD ./src/Anybus.o
LOAD ./src/I2C_Master.o
LOAD ./src/az4186_can.o
LOAD ./src/az4186_dac.o
LOAD ./src/az4186_eeprom_24c04.o
LOAD ./src/az4186_emc.o
LOAD ./src/az4186_files.o
LOAD ./src/az4186_initHw.o
LOAD ./src/az4186_program_codes.o
LOAD ./src/az4186_temperature_compensation.o
LOAD ./src/az4186_window_temperature_compensation.o
LOAD ./src/codelist.o
LOAD ./src/crp.o
LOAD ./src/diskio.o
LOAD ./src/dma.o
LOAD ./src/fat_time.o
LOAD ./src/file_list.o
LOAD ./src/gui.o
LOAD ./src/i2c.o
LOAD ./src/inverse_v1.o
LOAD ./src/lcd.o
LOAD ./src/main.o
LOAD ./src/mci.o
LOAD ./src/params.o
LOAD ./src/popup.o
LOAD ./src/rtcDS3231_newer.o
LOAD ./src/spi.o
LOAD ./src/spidbg.o
LOAD ./src/spiglb.o
LOAD ./src/spimis.o
LOAD ./src/spiutils.o
LOAD ./src/spiwin2.o
LOAD ./src/target.o
LOAD ./src/vdip.o
LOAD ./src/xxtea.o
LOAD ./ff9/src/option/ccsbcs.o
LOAD ./ff9/src/option/syscall.o
LOAD ./ff9/src/ff.o
LOAD ./CANopen_stack/LPC2388/CO_driver.o
LOAD ./CANopen_stack/LPC2388/co_od.o
LOAD ./CANopen_stack/CANopen.o
LOAD ./CANopen_stack/CO_Emergency.o
LOAD ./CANopen_stack/CO_HBconsumer.o
LOAD ./CANopen_stack/CO_NMT_Heartbeat.o
LOAD ./CANopen_stack/CO_PDO.o
LOAD ./CANopen_stack/CO_SDO.o
LOAD ./CANopen_stack/CO_SDOmaster.o
LOAD ./CANopen_stack/CO_SYNC.o
START GROUP
LOAD /usr/local/lpcxpresso_7.8.0_426/lpcxpresso/tools/bin/../lib/gcc/arm-none-eabi/4.9.3/../../../../arm-none-eabi/lib/libcr_nohost.a
LOAD /usr/local/lpcxpresso_7.8.0_426/lpcxpresso/tools/bin/../lib/gcc/arm-none-eabi/4.9.3/../../../../arm-none-eabi/lib/libcr_c.a
LOAD /usr/local/lpcxpresso_7.8.0_426/lpcxpresso/tools/bin/../lib/gcc/arm-none-eabi/4.9.3/libcr_eabihelpers.a
END GROUP
                0x0007e000                __top_MFlash512 = 0x7e000
                0x40010000                __top_Ram64 = 0x40010000
                0x7fe04000                __top_RAM_ETH_16 = 0x7fe04000
                0x7fd04000                __top_RAM_USB_16 = 0x7fd04000
                0xe0084800                __top_RAM_RTC_2 = 0xe0084800
                0x00000c00                _Minimum_Stack_Size = 0xc00
                0x00002000                _Minimum_Heap_Size = 0x2000
                0x00000000                PROVIDE (_start, 0x0)

user_fw_version
                0x00008000       0x29
 user_fw_version
                0x00008000       0x29 ./src/main.o
                0x00008000                ucFirmwareVersion

MAIN_ENTRY_POINT
                0x00008100       0x60
 *(.MAIN_ENTRY_POINT)
 *(.text.main)
 MAIN_ENTRY_POINT
                0x00008100       0x60 ./src/main.o
                0x00008100                main

.text           0x00008160    0x49394
 *(.text*)
 .text          0x00008160        0x0 ./src/Anybus.o
 .text.ucInitDataProducer_productList
                0x00008160       0x24 ./src/Anybus.o
                0x00008160                ucInitDataProducer_productList
 .text.vUpdateAnybusLogString
                0x00008184      0x124 ./src/Anybus.o
 .text.ucDataProducer_productList
                0x000082a8      0x274 ./src/Anybus.o
                0x000082a8                ucDataProducer_productList
 .text.ucInitDataConsumer_productList
                0x0000851c       0x40 ./src/Anybus.o
                0x0000851c                ucInitDataConsumer_productList
 .text.us_swap_bytes
                0x0000855c       0x14 ./src/Anybus.o
                0x0000855c                us_swap_bytes
 .text.vUartAnybus_Init
                0x00008570       0x20 ./src/Anybus.o
                0x00008570                vUartAnybus_Init
 .text.uiUartAnybus_getRxByte
                0x00008590       0x3c ./src/Anybus.o
                0x00008590                uiUartAnybus_getRxByte
 .text.ucUartAnybus_PostTxCommand
                0x000085cc       0x28 ./src/Anybus.o
                0x000085cc                ucUartAnybus_PostTxCommand
 .text.vUartAnybus_RefreshStatus
                0x000085f4       0x6c ./src/Anybus.o
                0x000085f4                vUartAnybus_RefreshStatus
 .text.vUartAnybus_Handle
                0x00008660      0x128 ./src/Anybus.o
                0x00008660                vUartAnybus_Handle
 .text.uiModbus_Crc
                0x00008788       0x44 ./src/Anybus.o
                0x00008788                uiModbus_Crc
 .text.puc_assign_us_swapped_bytes
                0x000087cc       0x14 ./src/Anybus.o
                0x000087cc                puc_assign_us_swapped_bytes
 .text.ucAnybus_TxMessageBusy
                0x000087e0       0x1c ./src/Anybus.o
                0x000087e0                ucAnybus_TxMessageBusy
 .text.ucAnybus_TxMessageOk
                0x000087fc       0x1c ./src/Anybus.o
                0x000087fc                ucAnybus_TxMessageOk
 .text.vAnybusTxRx_Init
                0x00008818       0x24 ./src/Anybus.o
                0x00008818                vAnybusTxRx_Init
 .text.ucPostAnybusMessage_updateParameter
                0x0000883c       0xdc ./src/Anybus.o
                0x0000883c                ucPostAnybusMessage_updateParameter
 .text.ucPostAnybusMessage_generalParameterWrite
                0x00008918       0x38 ./src/Anybus.o
                0x00008918                ucPostAnybusMessage_generalParameterWrite
 .text.ucPostAnybusMessage_generalParameterRead
                0x00008950       0x38 ./src/Anybus.o
                0x00008950                ucPostAnybusMessage_generalParameterRead
 .text.ucCreateApplicationParameter
                0x00008988      0x1c0 ./src/Anybus.o
                0x00008988                ucCreateApplicationParameter
 .text.ucAnybus_FileWrite
                0x00008b48       0xa0 ./src/Anybus.o
                0x00008b48                ucAnybus_FileWrite
 .text.ucAnybus_FileRead
                0x00008be8       0x7c ./src/Anybus.o
                0x00008be8                ucAnybus_FileRead
 .text.ucAnybus_FileClose
                0x00008c64       0x6c ./src/Anybus.o
                0x00008c64                ucAnybus_FileClose
 .text.ucAnybus_FileOpen
                0x00008cd0       0x98 ./src/Anybus.o
                0x00008cd0                ucAnybus_FileOpen
 .text.ucAnybus_FileDelete
                0x00008d68       0x84 ./src/Anybus.o
                0x00008d68                ucAnybus_FileDelete
 .text.vReinitTimers_AnybusTxRx
                0x00008dec       0x30 ./src/Anybus.o
                0x00008dec                vReinitTimers_AnybusTxRx
 .text.pucAnybus_GetReadRegMsgBody
                0x00008e1c        0xc ./src/Anybus.o
                0x00008e1c                pucAnybus_GetReadRegMsgBody
 .text.vAnybusTxRx_Handle
                0x00008e28      0x834 ./src/Anybus.o
                0x00008e28                vAnybusTxRx_Handle
 .text.uiCanIAcceptRemoteControl
                0x0000965c       0x94 ./src/Anybus.o
                0x0000965c                uiCanIAcceptRemoteControl
 .text.pcGetAnybusMacAddress
                0x000096f0        0xc ./src/Anybus.o
                0x000096f0                pcGetAnybusMacAddress
 .text.pcSkipBlank
                0x000096fc       0x30 ./src/Anybus.o
                0x000096fc                pcSkipBlank
 .text.pcFindBlank
                0x0000972c       0x30 ./src/Anybus.o
                0x0000972c                pcFindBlank
 .text.pcFindChar
                0x0000975c       0x28 ./src/Anybus.o
                0x0000975c                pcFindChar
 .text.ucDataConsumer_productList
                0x00009784      0x500 ./src/Anybus.o
                0x00009784                ucDataConsumer_productList
 .text.ucInitDataProducer_productArchive
                0x00009c84       0x4c ./src/Anybus.o
                0x00009c84                ucInitDataProducer_productArchive
 .text.ucDataProducer_productArchive
                0x00009cd0      0x30c ./src/Anybus.o
                0x00009cd0                ucDataProducer_productArchive
 .text.vUpdateAnybusStartString
                0x00009fdc       0xb0 ./src/Anybus.o
                0x00009fdc                vUpdateAnybusStartString
 .text.vUpdateAnybusProductionString
                0x0000a08c       0xb0 ./src/Anybus.o
                0x0000a08c                vUpdateAnybusProductionString
 .text.vUpdateAnybusEndProductionString
                0x0000a13c       0xb0 ./src/Anybus.o
                0x0000a13c                vUpdateAnybusEndProductionString
 .text.vAnybusSprintProductionString
                0x0000a1ec       0x94 ./src/Anybus.o
                0x0000a1ec                vAnybusSprintProductionString
 .text.vLog_production_log
                0x0000a280       0x98 ./src/Anybus.o
                0x0000a280                vLog_production_log
 .text.vLogStartProduzione
                0x0000a318       0xc4 ./src/Anybus.o
                0x0000a318                vLogStartProduzione
 .text.vLogStopProduzione
                0x0000a3dc       0xa0 ./src/Anybus.o
                0x0000a3dc                vLogStopProduzione
 .text.vLogEndProduzione
                0x0000a47c       0x80 ./src/Anybus.o
                0x0000a47c                vLogEndProduzione
 .text.vLogAlarm
                0x0000a4fc       0xc4 ./src/Anybus.o
                0x0000a4fc                vLogAlarm
 .text.ucRemoteCommandRunning
                0x0000a5c0       0x10 ./src/Anybus.o
                0x0000a5c0                ucRemoteCommandRunning
 .text.ucRemoteCommandAsking
                0x0000a5d0       0x10 ./src/Anybus.o
                0x0000a5d0                ucRemoteCommandAsking
 .text.vRemoteCommandsFlagsInit
                0x0000a5e0       0x24 ./src/Anybus.o
                0x0000a5e0                vRemoteCommandsFlagsInit
 .text.vRemoteCommandAskingSet
                0x0000a604       0x3c ./src/Anybus.o
                0x0000a604                vRemoteCommandAskingSet
 .text.vRemoteCommandAskingReply
                0x0000a640       0x44 ./src/Anybus.o
                0x0000a640                vRemoteCommandAskingReply
 .text.vInitStructSuspendAnybusOp
                0x0000a684       0x20 ./src/Anybus.o
                0x0000a684                vInitStructSuspendAnybusOp
 .text.vHMA_init
                0x0000a6a4       0xa4 ./src/Anybus.o
                0x0000a6a4                vHMA_init
 .text.uiHasBeenAckRequestSuspendAnybusOp
                0x0000a748       0x34 ./src/Anybus.o
                0x0000a748                uiHasBeenAckRequestSuspendAnybusOp
 .text.uiHasBeenRequestSuspendAnybusOp
                0x0000a77c       0x18 ./src/Anybus.o
                0x0000a77c                uiHasBeenRequestSuspendAnybusOp
 .text.uiRequestSuspendAnybusOp
                0x0000a794       0x24 ./src/Anybus.o
                0x0000a794                uiRequestSuspendAnybusOp
 .text.uiSignalSuspendAnybusOp
                0x0000a7b8       0x20 ./src/Anybus.o
                0x0000a7b8                uiSignalSuspendAnybusOp
 .text.vHMA_handle
                0x0000a7d8     0x1410 ./src/Anybus.o
                0x0000a7d8                vHMA_handle
 .text          0x0000bbe8        0x0 ./src/I2C_Master.o
 .text.ucWaitI2Cbus
                0x0000bbe8       0xf4 ./src/I2C_Master.o
                0x0000bbe8                ucWaitI2Cbus
 .text.vSignalI2Cbus
                0x0000bcdc        0x4 ./src/I2C_Master.o
                0x0000bcdc                vSignalI2Cbus
 .text.SendByteMax519
                0x0000bce0       0x94 ./src/I2C_Master.o
                0x0000bce0                SendByteMax519
 .text.ucSendCommandPosTaglioMax519_Interrupt
                0x0000bd74       0xa0 ./src/I2C_Master.o
                0x0000bd74                ucSendCommandPosTaglioMax519_Interrupt
 .text.ucSendCommandPosTaglioMax519_Main
                0x0000be14       0x84 ./src/I2C_Master.o
                0x0000be14                ucSendCommandPosTaglioMax519_Main
 .text.vInitI2c
                0x0000be98       0x24 ./src/I2C_Master.o
                0x0000be98                vInitI2c
 .text          0x0000bebc        0x0 ./src/az4186_can.o
 .text.IRQ_Handler_canopen_timer0
                0x0000bebc       0x68 ./src/az4186_can.o
 .text.ui_init_canbus.part.0
                0x0000bf24      0x1b4 ./src/az4186_can.o
 .text.ui_init_canbus
                0x0000c0d8       0x18 ./src/az4186_can.o
                0x0000c0d8                ui_init_canbus
 .text.CAN_set_acceptance_filter_lookup
                0x0000c0f0       0xac ./src/az4186_can.o
                0x0000c0f0                CAN_set_acceptance_filter_lookup
 .text.CAN_set_acceptance_filter
                0x0000c19c       0x90 ./src/az4186_can.o
                0x0000c19c                CAN_set_acceptance_filter
 .text.dw_can1_send_message
                0x0000c22c       0xc4 ./src/az4186_can.o
                0x0000c22c                dw_can1_send_message
 .text.dw_can2_send_message
                0x0000c2f0       0xcc ./src/az4186_can.o
                0x0000c2f0                dw_can2_send_message
 .text.ui_can_test
                0x0000c3bc      0x150 ./src/az4186_can.o
                0x0000c3bc                ui_can_test
 .text.CAN1callback
                0x0000c50c       0x2c ./src/az4186_can.o
                0x0000c50c                CAN1callback
 .text.CAN_ISR_Rx1
                0x0000c538       0xc8 ./src/az4186_can.o
                0x0000c538                CAN_ISR_Rx1
 .text.CAN2callback
                0x0000c600       0x2c ./src/az4186_can.o
                0x0000c600                CAN2callback
 .text.CAN_ISR_Rx2
                0x0000c62c       0xc8 ./src/az4186_can.o
                0x0000c62c                CAN_ISR_Rx2
 .text.CAN_irq_handler
                0x0000c6f4       0xac ./src/az4186_can.o
                0x0000c6f4                CAN_irq_handler
 .text.ui_write_canopen_parameter
                0x0000c7a0       0x88 ./src/az4186_can.o
                0x0000c7a0                ui_write_canopen_parameter
 .text.ui_check_end_of_parameter_write
                0x0000c828       0x90 ./src/az4186_can.o
                0x0000c828                ui_check_end_of_parameter_write
 .text.ui_set_canopen_analog_input_refresh_period_ms
                0x0000c8b8       0x34 ./src/az4186_can.o
                0x0000c8b8                ui_set_canopen_analog_input_refresh_period_ms
 .text.ui_set_canopen_analog_input_type
                0x0000c8ec       0x30 ./src/az4186_can.o
                0x0000c8ec                ui_set_canopen_analog_input_type
 .text.ui_set_canopen_analog_input_type_2
                0x0000c91c       0x34 ./src/az4186_can.o
                0x0000c91c                ui_set_canopen_analog_input_type_2
 .text.v_request_data
                0x0000c950       0x48 ./src/az4186_can.o
                0x0000c950                v_request_data
 .text.v_canopen_nodes_operational
                0x0000c998       0x88 ./src/az4186_can.o
                0x0000c998                v_canopen_nodes_operational
 .text.v_canopen_init_timer0
                0x0000ca20       0x7c ./src/az4186_can.o
                0x0000ca20                v_canopen_init_timer0
 .text.ul_timer_difference_init
                0x0000ca9c       0x18 ./src/az4186_can.o
                0x0000ca9c                ul_timer_difference_init
 .text.ul_timer_difference_update_ms
                0x0000cab4       0x24 ./src/az4186_can.o
                0x0000cab4                ul_timer_difference_update_ms
 .text.ui_get_canopen_temperature
                0x0000cad8       0x7c ./src/az4186_can.o
                0x0000cad8                ui_get_canopen_temperature
 .text.ui_get_canopen_temperature_cold_junction
                0x0000cb54       0x54 ./src/az4186_can.o
                0x0000cb54                ui_get_canopen_temperature_cold_junction
 .text.ul_get_canbus_living_counter
                0x0000cba8       0x10 ./src/az4186_can.o
                0x0000cba8                ul_get_canbus_living_counter
 .text.v_update_screen
                0x0000cbb8      0x264 ./src/az4186_can.o
                0x0000cbb8                v_update_screen
 .text.v_init_canopen_init_seq
                0x0000ce1c       0x20 ./src/az4186_can.o
                0x0000ce1c                v_init_canopen_init_seq
 .text.v_handle_canopen_init_seq
                0x0000ce3c      0x130 ./src/az4186_can.o
                0x0000ce3c                v_handle_canopen_init_seq
 .text.canopen_init
                0x0000cf6c       0x3c ./src/az4186_can.o
                0x0000cf6c                canopen_init
 .text.CO_ODF_1010
                0x0000cfa8        0x8 ./src/az4186_can.o
                0x0000cfa8                CO_ODF_1010
 .text.CO_ODF_1011
                0x0000cfb0        0x8 ./src/az4186_can.o
                0x0000cfb0                CO_ODF_1011
 .text.ODF_testDomain
                0x0000cfb8        0x8 ./src/az4186_can.o
                0x0000cfb8                ODF_testDomain
 .text.ui_canopen_init
                0x0000cfc0       0x1c ./src/az4186_can.o
                0x0000cfc0                ui_canopen_init
 .text.ui_canopen_process
                0x0000cfdc       0x34 ./src/az4186_can.o
                0x0000cfdc                ui_canopen_process
 .text.v_process_canopen_rpdo
                0x0000d010       0x1c ./src/az4186_can.o
                0x0000d010                v_process_canopen_rpdo
 .text.v_process_canopen_tpdo
                0x0000d02c       0x1c ./src/az4186_can.o
                0x0000d02c                v_process_canopen_tpdo
 .text.ui_canopen_test
                0x0000d048       0x94 ./src/az4186_can.o
                0x0000d048                ui_canopen_test
 .text          0x0000d0dc        0x0 ./src/az4186_dac.o
 .text.vUpdateDacPortValue
                0x0000d0dc       0x38 ./src/az4186_dac.o
                0x0000d0dc                vUpdateDacPortValue
 .text.v_dac_set_output_value
                0x0000d114       0x18 ./src/az4186_dac.o
                0x0000d114                v_dac_set_output_value
 .text.vTestDac
                0x0000d12c       0x28 ./src/az4186_dac.o
                0x0000d12c                vTestDac
 .text.ui_read_dac_selected_portata
                0x0000d154       0x10 ./src/az4186_dac.o
                0x0000d154                ui_read_dac_selected_portata
 .text.v_dac_init
                0x0000d164       0x2c ./src/az4186_dac.o
                0x0000d164                v_dac_init
 .text          0x0000d190        0x0 ./src/az4186_eeprom_24c04.o
 .text.ui_num_element_in_eeprom_queue
                0x0000d190       0x20 ./src/az4186_eeprom_24c04.o
                0x0000d190                ui_num_element_in_eeprom_queue
 .text.ui_is_full_eeprom_queue
                0x0000d1b0       0x1c ./src/az4186_eeprom_24c04.o
                0x0000d1b0                ui_is_full_eeprom_queue
 .text.ui_is_empty_eeprom_queue
                0x0000d1cc       0x18 ./src/az4186_eeprom_24c04.o
                0x0000d1cc                ui_is_empty_eeprom_queue
 .text.ui_save_eeprom
                0x0000d1e4       0x88 ./src/az4186_eeprom_24c04.o
                0x0000d1e4                ui_save_eeprom
 .text.v_eeprom_set_address
                0x0000d26c       0x78 ./src/az4186_eeprom_24c04.o
                0x0000d26c                v_eeprom_set_address
 .text.v_eeprom_read_bytes
                0x0000d2e4       0x5c ./src/az4186_eeprom_24c04.o
                0x0000d2e4                v_eeprom_read_bytes
 .text.v_eeprom_write_bytes
                0x0000d340       0xd4 ./src/az4186_eeprom_24c04.o
                0x0000d340                v_eeprom_write_bytes
 .text.ui_eeprom_verify_signature
                0x0000d414       0x4c ./src/az4186_eeprom_24c04.o
                0x0000d414                ui_eeprom_verify_signature
 .text.v_eeprom_write_signature
                0x0000d460       0x44 ./src/az4186_eeprom_24c04.o
                0x0000d460                v_eeprom_write_signature
 .text.v_init_eeprom
                0x0000d4a4       0x20 ./src/az4186_eeprom_24c04.o
                0x0000d4a4                v_init_eeprom
 .text.v_erase_eeprom_datum
                0x0000d4c4       0xf4 ./src/az4186_eeprom_24c04.o
                0x0000d4c4                v_erase_eeprom_datum
 .text.v_save_eeprom_datum
                0x0000d5b8       0xf8 ./src/az4186_eeprom_24c04.o
                0x0000d5b8                v_save_eeprom_datum
 .text.ui_read_eeprom_datum
                0x0000d6b0      0x110 ./src/az4186_eeprom_24c04.o
                0x0000d6b0                ui_read_eeprom_datum
 .text.ui_update_eeprom_datum
                0x0000d7c0       0x84 ./src/az4186_eeprom_24c04.o
                0x0000d7c0                ui_update_eeprom_datum
 .text.ui_load_from_eeprom_datum
                0x0000d844       0xb8 ./src/az4186_eeprom_24c04.o
                0x0000d844                ui_load_from_eeprom_datum
 .text.ui_load_from_eeprom_all_data
                0x0000d8fc       0x38 ./src/az4186_eeprom_24c04.o
                0x0000d8fc                ui_load_from_eeprom_all_data
 .text.ui_save_to_eeprom_all_data
                0x0000d934       0x44 ./src/az4186_eeprom_24c04.o
                0x0000d934                ui_save_to_eeprom_all_data
 .text.v_format_eeprom
                0x0000d978       0x58 ./src/az4186_eeprom_24c04.o
                0x0000d978                v_format_eeprom
 .text.ui_save_encrypted_param
                0x0000d9d0      0x1f8 ./src/az4186_eeprom_24c04.o
                0x0000d9d0                ui_save_encrypted_param
 .text.v_handle_eeprom
                0x0000dbc8       0x98 ./src/az4186_eeprom_24c04.o
                0x0000dbc8                v_handle_eeprom
 .text          0x0000dc60        0x0 ./src/az4186_emc.o
 .text.ui_enable_external_ram
                0x0000dc60       0x3c ./src/az4186_emc.o
                0x0000dc60                ui_enable_external_ram
 .text.vEMC_az4186_fpga_init
                0x0000dc9c       0xdc ./src/az4186_emc.o
                0x0000dc9c                vEMC_az4186_fpga_init
 .text.ui_ext_ram_destructive_rw_test
                0x0000dd78      0x330 ./src/az4186_emc.o
                0x0000dd78                ui_ext_ram_destructive_rw_test
 .text.ui_ext_ram_retention_test
                0x0000e0a8      0x128 ./src/az4186_emc.o
                0x0000e0a8                ui_ext_ram_retention_test
 .text          0x0000e1d0        0x0 ./src/az4186_files.o
 .text.ui_write_single_object_file
                0x0000e1d0       0x6c ./src/az4186_files.o
 .text.ui_explore_dir.part.0
                0x0000e23c       0x5c ./src/az4186_files.o
 .text.ui_read_single_object_file
                0x0000e298       0x6c ./src/az4186_files.o
                0x0000e298                ui_read_single_object_file
 .text.fileSystem_uiEqualJollyFileName
                0x0000e304      0x120 ./src/az4186_files.o
                0x0000e304                fileSystem_uiEqualJollyFileName
 .text.ui_file_copy
                0x0000e424       0x7c ./src/az4186_files.o
                0x0000e424                ui_file_copy
 .text.ui_f_copy
                0x0000e4a0       0x7c ./src/az4186_files.o
                0x0000e4a0                ui_f_copy
 .text.ui_explore_dir
                0x0000e51c       0x60 ./src/az4186_files.o
                0x0000e51c                ui_explore_dir
 .text.v_find_info_backup
                0x0000e57c       0x58 ./src/az4186_files.o
                0x0000e57c                v_find_info_backup
 .text.ui_restore_file
                0x0000e5d4       0xb8 ./src/az4186_files.o
                0x0000e5d4                ui_restore_file
 .text.ui_backup_file
                0x0000e68c      0x298 ./src/az4186_files.o
                0x0000e68c                ui_backup_file
 .text.ui_write_lcd_calibration_file
                0x0000e924       0x34 ./src/az4186_files.o
                0x0000e924                ui_write_lcd_calibration_file
 .text.ui_read_lcd_calibration_file
                0x0000e958       0x18 ./src/az4186_files.o
                0x0000e958                ui_read_lcd_calibration_file
 .text.ui_write_macparams_file
                0x0000e970       0x34 ./src/az4186_files.o
                0x0000e970                ui_write_macparams_file
 .text.ui_read_macparams_file
                0x0000e9a4       0x18 ./src/az4186_files.o
                0x0000e9a4                ui_read_macparams_file
 .text.pRead_private_parameter
                0x0000e9bc       0x68 ./src/az4186_files.o
                0x0000e9bc                pRead_private_parameter
 .text.pWrite_private_parameter
                0x0000ea24       0x88 ./src/az4186_files.o
                0x0000ea24                pWrite_private_parameter
 .text.pRead_custom_string20
                0x0000eaac       0x98 ./src/az4186_files.o
                0x0000eaac                pRead_custom_string20
 .text.pWrite_custom_string20
                0x0000eb44       0x8c ./src/az4186_files.o
                0x0000eb44                pWrite_custom_string20
 .text.pRead_custom_string40
                0x0000ebd0       0x90 ./src/az4186_files.o
                0x0000ebd0                pRead_custom_string40
 .text.pWrite_custom_string40
                0x0000ec60       0x8c ./src/az4186_files.o
                0x0000ec60                pWrite_custom_string40
 .text.ui_test_backup_restore
                0x0000ecec      0x128 ./src/az4186_files.o
                0x0000ecec                ui_test_backup_restore
 .text          0x0000ee14        0x0 ./src/az4186_initHw.o
 .text.disableIRQ
                0x0000ee14       0x3c ./src/az4186_initHw.o
                0x0000ee14                disableIRQ
 .text.restoreIRQ
                0x0000ee50       0x34 ./src/az4186_initHw.o
                0x0000ee50                restoreIRQ
 .text.enableIRQ
                0x0000ee84       0x34 ./src/az4186_initHw.o
                0x0000ee84                enableIRQ
 .text.vInitDataAndBssSections
                0x0000eeb8       0x4c ./src/az4186_initHw.o
                0x0000eeb8                vInitDataAndBssSections
 .text.v_wait_microseconds
                0x0000ef04       0x20 ./src/az4186_initHw.o
                0x0000ef04                v_wait_microseconds
 .text.vAZ4186_InitHwStuff
                0x0000ef24       0x7c ./src/az4186_initHw.o
                0x0000ef24                vAZ4186_InitHwStuff
 .text.v_reset_az4186
                0x0000efa0       0x48 ./src/az4186_initHw.o
                0x0000efa0                v_reset_az4186
 .text          0x0000efe8        0x0 ./src/az4186_program_codes.o
 .text.ui_check_version_of_product_codes_file
                0x0000efe8      0x2b0 ./src/az4186_program_codes.o
                0x0000efe8                ui_check_version_of_product_codes_file
 .text.ui_register_product_codes
                0x0000f298       0x58 ./src/az4186_program_codes.o
                0x0000f298                ui_register_product_codes
 .text.ui_product_file_read_body
                0x0000f2f0       0x6c ./src/az4186_program_codes.o
                0x0000f2f0                ui_product_file_read_body
 .text.ui_product_file_write_body
                0x0000f35c       0x6c ./src/az4186_program_codes.o
                0x0000f35c                ui_product_file_write_body
 .text.move_prg_pointer_retcode
                0x0000f3c8       0x98 ./src/az4186_program_codes.o
                0x0000f3c8                move_prg_pointer_retcode
 .text.ucCmpCodiciProgrammaJolly
                0x0000f460       0x48 ./src/az4186_program_codes.o
                0x0000f460                ucCmpCodiciProgrammaJolly
 .text.ucSearchCodiceProgramma
                0x0000f4a8      0x178 ./src/az4186_program_codes.o
                0x0000f4a8                ucSearchCodiceProgramma
 .text.uiGetActPrg
                0x0000f620       0x10 ./src/az4186_program_codes.o
                0x0000f620                uiGetActPrg
 .text.uiGetRunningPrg
                0x0000f630       0x10 ./src/az4186_program_codes.o
                0x0000f630                uiGetRunningPrg
 .text.uiSetActPrg
                0x0000f640       0x50 ./src/az4186_program_codes.o
                0x0000f640                uiSetActPrg
 .text.uiSetRunningPrg
                0x0000f690       0x44 ./src/az4186_program_codes.o
                0x0000f690                uiSetRunningPrg
 .text.ucSaveRunningPrg
                0x0000f6d4       0x5c ./src/az4186_program_codes.o
                0x0000f6d4                ucSaveRunningPrg
 .text.ucSaveActPrg
                0x0000f730       0x70 ./src/az4186_program_codes.o
                0x0000f730                ucSaveActPrg
 .text.v_add_default_product_code
                0x0000f7a0      0x110 ./src/az4186_program_codes.o
                0x0000f7a0                v_add_default_product_code
 .text.vInitProgramList
                0x0000f8b0       0x60 ./src/az4186_program_codes.o
                0x0000f8b0                vInitProgramList
 .text.InsertPrg
                0x0000f910       0x78 ./src/az4186_program_codes.o
                0x0000f910                InsertPrg
 .text.DeleteProgramma
                0x0000f988      0x12c ./src/az4186_program_codes.o
                0x0000f988                DeleteProgramma
 .text.v_empty_product_codes_list
                0x0000fab4       0x20 ./src/az4186_program_codes.o
                0x0000fab4                v_empty_product_codes_list
 .text.test_product_codes
                0x0000fad4      0x140 ./src/az4186_program_codes.o
                0x0000fad4                test_product_codes
 .text          0x0000fc14        0x0 ./src/az4186_temperature_compensation.o
 .text.ui_alarm_reading_temperature
                0x0000fc14       0x10 ./src/az4186_temperature_compensation.o
                0x0000fc14                ui_alarm_reading_temperature
 .text.ui_temperature_compensation_warmup_finished
                0x0000fc24       0x1c ./src/az4186_temperature_compensation.o
                0x0000fc24                ui_temperature_compensation_warmup_finished
 .text.ui_update_first_temperature_filter
                0x0000fc40      0x158 ./src/az4186_temperature_compensation.o
                0x0000fc40                ui_update_first_temperature_filter
 .text.v_initialize_temperature_compensation
                0x0000fd98       0x20 ./src/az4186_temperature_compensation.o
                0x0000fd98                v_initialize_temperature_compensation
 .text.v_handle_temperature_compensation
                0x0000fdb8      0x194 ./src/az4186_temperature_compensation.o
                0x0000fdb8                v_handle_temperature_compensation
 .text.v_set_alfa_factor
                0x0000ff4c       0x80 ./src/az4186_temperature_compensation.o
                0x0000ff4c                v_set_alfa_factor
 .text.ui_temperature_compensation_valid
                0x0000ffcc       0x10 ./src/az4186_temperature_compensation.o
                0x0000ffcc                ui_temperature_compensation_valid
 .text.i_ro_compensate_temperature
                0x0000ffdc       0xc8 ./src/az4186_temperature_compensation.o
                0x0000ffdc                i_ro_compensate_temperature
 .text.i_get_last_temperature_compensation_permille_used
                0x000100a4       0x10 ./src/az4186_temperature_compensation.o
                0x000100a4                i_get_last_temperature_compensation_permille_used
 .text.ui_get_averaged_compensation_temperature_celsius
                0x000100b4       0x9c ./src/az4186_temperature_compensation.o
                0x000100b4                ui_get_averaged_compensation_temperature_celsius
 .text.f_get_temperature_from_normalized_one
                0x00010150       0x34 ./src/az4186_temperature_compensation.o
                0x00010150                f_get_temperature_from_normalized_one
 .text.f_get_alfa_factor
                0x00010184       0x10 ./src/az4186_temperature_compensation.o
                0x00010184                f_get_alfa_factor
 .text.v_get_temperature_compensation_stats
                0x00010194       0x4c ./src/az4186_temperature_compensation.o
                0x00010194                v_get_temperature_compensation_stats
 .text.ui_get_temperature_compensated_resistance
                0x000101e0       0x64 ./src/az4186_temperature_compensation.o
                0x000101e0                ui_get_temperature_compensated_resistance
 .text          0x00010244        0x0 ./src/az4186_window_temperature_compensation.o
 .text.ui_is_valid_temp_calibration_point_on_act_prg.part.0
                0x00010244       0x58 ./src/az4186_window_temperature_compensation.o
 .text.ui_is_valid_temp_calibration_point_on_act_prg
                0x0001029c       0x10 ./src/az4186_window_temperature_compensation.o
                0x0001029c                ui_is_valid_temp_calibration_point_on_act_prg
 .text.ucHW_temperature_compensation_params
                0x000102ac      0x780 ./src/az4186_window_temperature_compensation.o
                0x000102ac                ucHW_temperature_compensation_params
 .text          0x00010a2c        0x0 ./src/codelist.o
 .text.uiLimitCommRpm
                0x00010a2c      0x378 ./src/codelist.o
                0x00010a2c                uiLimitCommRpm
 .text.vStringLangCopy
                0x00010da4       0xac ./src/codelist.o
                0x00010da4                vStringLangCopy
 .text.pucStringLang
                0x00010e50       0x90 ./src/codelist.o
                0x00010e50                pucStringLang
 .text.vString40LangCopy
                0x00010ee0       0xac ./src/codelist.o
                0x00010ee0                vString40LangCopy
 .text.ucHW_listaCodici
                0x00010f8c      0x468 ./src/codelist.o
                0x00010f8c                ucHW_listaCodici
 .text          0x000113f4        0x0 ./src/crp.o
 .text          0x000113f4        0x0 ./src/diskio.o
 .text.wait_ready
                0x000113f4       0x48 ./src/diskio.o
 .text.v_generate_diag_alarm
                0x0001143c       0x34 ./src/diskio.o
 .text.uiSD_Initialize
                0x00011470       0xac ./src/diskio.o
                0x00011470                uiSD_Initialize
 .text.disk_initialize
                0x0001151c       0xd4 ./src/diskio.o
                0x0001151c                disk_initialize
 .text.disk_status
                0x000115f0       0x1c ./src/diskio.o
                0x000115f0                disk_status
 .text.disk_read
                0x0001160c       0xe0 ./src/diskio.o
                0x0001160c                disk_read
 .text.disk_write
                0x000116ec      0x12c ./src/diskio.o
                0x000116ec                disk_write
 .text.disk_ioctl
                0x00011818       0x88 ./src/diskio.o
                0x00011818                disk_ioctl
 .text.disk_timerproc
                0x000118a0       0x3c ./src/diskio.o
                0x000118a0                disk_timerproc
 .text.ucHasBeenFile_Modified
                0x000118dc       0x40 ./src/diskio.o
                0x000118dc                ucHasBeenFile_Modified
 .text.ucSignalFile_Modified
                0x0001191c       0x54 ./src/diskio.o
                0x0001191c                ucSignalFile_Modified
 .text          0x00011970        0x0 ./src/dma.o
 .text.DMAHandler
                0x00011970       0x68 ./src/dma.o
                0x00011970                DMAHandler
 .text.DMA_Init
                0x000119d8       0x70 ./src/dma.o
                0x000119d8                DMA_Init
 .text.DMA_Move
                0x00011a48      0x138 ./src/dma.o
                0x00011a48                DMA_Move
 .text          0x00011b80        0x0 ./src/fat_time.o
 .text.get_fattime
                0x00011b80       0x60 ./src/fat_time.o
                0x00011b80                get_fattime
 .text          0x00011be0        0x0 ./src/file_list.o
 .text.ui_file_list_crc
                0x00011be0       0x9c ./src/file_list.o
                0x00011be0                ui_file_list_crc
 .text.ui_get_header_body_size_file_list
                0x00011c7c       0xac ./src/file_list.o
                0x00011c7c                ui_get_header_body_size_file_list
 .text.open_file_list
                0x00011d28      0x160 ./src/file_list.o
                0x00011d28                open_file_list
 .text.create_file_list
                0x00011e88      0x144 ./src/file_list.o
                0x00011e88                create_file_list
 .text.file_list_find_element
                0x00011fcc      0x1a0 ./src/file_list.o
                0x00011fcc                file_list_find_element
 .text.insert_file_list
                0x0001216c      0x2b8 ./src/file_list.o
                0x0001216c                insert_file_list
 .text.delete_file_list
                0x00012424      0x23c ./src/file_list.o
                0x00012424                delete_file_list
 .text.walk_file_list
                0x00012660      0x280 ./src/file_list.o
                0x00012660                walk_file_list
 .text.close_file_list
                0x000128e0       0x14 ./src/file_list.o
                0x000128e0                close_file_list
 .text.v_init_file_list_registry
                0x000128f4       0x24 ./src/file_list.o
                0x000128f4                v_init_file_list_registry
 .text.file_list_register
                0x00012918       0xa8 ./src/file_list.o
                0x00012918                file_list_register
 .text.insert_reg_file_list
                0x000129c0       0x6c ./src/file_list.o
                0x000129c0                insert_reg_file_list
 .text.delete_reg_file_list
                0x00012a2c       0x4c ./src/file_list.o
                0x00012a2c                delete_reg_file_list
 .text.v_close_reg_file_list
                0x00012a78       0x3c ./src/file_list.o
                0x00012a78                v_close_reg_file_list
 .text.ul_reg_file_cur_id
                0x00012ab4       0x60 ./src/file_list.o
                0x00012ab4                ul_reg_file_cur_id
 .text.walk_reg_file_list
                0x00012b14      0x138 ./src/file_list.o
                0x00012b14                walk_reg_file_list
 .text.v_test_file_list
                0x00012c4c      0x1c0 ./src/file_list.o
                0x00012c4c                v_test_file_list
 .text          0x00012e0c        0x0 ./src/gui.o
 .text.ucNewKeyPressed
                0x00012e0c       0x10 ./src/gui.o
                0x00012e0c                ucNewKeyPressed
 .text.ucGetKeyPressed
                0x00012e1c       0x18 ./src/gui.o
                0x00012e1c                ucGetKeyPressed
 .text.uiPixelDistance
                0x00012e34       0x10 ./src/gui.o
                0x00012e34                uiPixelDistance
 .text.vInitTextOnDisplayQueue
                0x00012e44       0x1c ./src/gui.o
                0x00012e44                vInitTextOnDisplayQueue
 .text.vInitLcdTable
                0x00012e60       0x2c ./src/gui.o
                0x00012e60                vInitLcdTable
 .text.ucNextLcdId
                0x00012e8c       0x48 ./src/gui.o
                0x00012e8c                ucNextLcdId
 .text.ucFreeLcdId
                0x00012ed4       0x44 ./src/gui.o
                0x00012ed4                ucFreeLcdId
 .text.ucDeleteTextOnDisplayQueue
                0x00012f18       0x84 ./src/gui.o
                0x00012f18                ucDeleteTextOnDisplayQueue
 .text.ucResetTextOnDisplayQueue
                0x00012f9c       0x3c ./src/gui.o
                0x00012f9c                ucResetTextOnDisplayQueue
 .text.myexit   0x00012fd8        0x4 ./src/gui.o
                0x00012fd8                myexit
 .text.ucInsertTextOnDisplayQueue
                0x00012fdc      0x100 ./src/gui.o
                0x00012fdc                ucInsertTextOnDisplayQueue
 .text.vRemapTextOnQueue
                0x000130dc        0x4 ./src/gui.o
                0x000130dc                vRemapTextOnQueue
 .text.vCalcAreaTouchScreenTesto
                0x000130e0       0xe8 ./src/gui.o
                0x000130e0                vCalcAreaTouchScreenTesto
 .text.ucVerifyTouchOnTesto
                0x000131c8       0x78 ./src/gui.o
                0x000131c8                ucVerifyTouchOnTesto
 .text.ucTextOnDisplay
                0x00013240       0x64 ./src/gui.o
                0x00013240                ucTextOnDisplay
 .text.ucBitmap40x25OnDisplay
                0x000132a4       0x8c ./src/gui.o
                0x000132a4                ucBitmap40x25OnDisplay
 .text.vMapTesto
                0x00013330      0x5e4 ./src/gui.o
                0x00013330                vMapTesto
 .text.ucRenderTextOnVideo
                0x00013914       0x74 ./src/gui.o
                0x00013914                ucRenderTextOnVideo
 .text.vInitImmagine
                0x00013988       0x1c ./src/gui.o
                0x00013988                vInitImmagine
 .text.vForceRefreshImmagine
                0x000139a4       0x1c ./src/gui.o
                0x000139a4                vForceRefreshImmagine
 .text.ucClearScreen
                0x000139c0       0x28 ./src/gui.o
                0x000139c0                ucClearScreen
 .text.vCaricaImmagine
                0x000139e8       0x10 ./src/gui.o
                0x000139e8                vCaricaImmagine
 .text.ucImmagineCambiata
                0x000139f8       0x1c ./src/gui.o
                0x000139f8                ucImmagineCambiata
 .text.vResetTextSettings
                0x00013a14       0x24 ./src/gui.o
                0x00013a14                vResetTextSettings
 .text.vCloseLCD
                0x00013a38        0x4 ./src/gui.o
                0x00013a38                vCloseLCD
 .text.vInitKbd
                0x00013a3c      0x10c ./src/gui.o
                0x00013a3c                vInitKbd
 .text.vInitLcd
                0x00013b48       0xc8 ./src/gui.o
                0x00013b48                vInitLcd
 .text.vCtrlPressedButtons
                0x00013c10       0x5c ./src/gui.o
                0x00013c10                vCtrlPressedButtons
 .text.vSelectFont
                0x00013c6c       0x10 ./src/gui.o
                0x00013c6c                vSelectFont
 .text.vSelectTextColor
                0x00013c7c       0x10 ./src/gui.o
                0x00013c7c                vSelectTextColor
 .text.vSelectBackColor
                0x00013c8c       0x10 ./src/gui.o
                0x00013c8c                vSelectBackColor
 .text.ucPrintStaticText_MediumFont_Color
                0x00013c9c       0x58 ./src/gui.o
                0x00013c9c                ucPrintStaticText_MediumFont_Color
 .text.ucPrintSmallText_ColNames
                0x00013cf4       0x54 ./src/gui.o
                0x00013cf4                ucPrintSmallText_ColNames
 .text.ucPrintSmallText_ColNames_BackColor
                0x00013d48       0x54 ./src/gui.o
                0x00013d48                ucPrintSmallText_ColNames_BackColor
 .text.ucPrintTitleButton
                0x00013d9c      0x160 ./src/gui.o
                0x00013d9c                ucPrintTitleButton
 .text.ucPrintBitmapButton
                0x00013efc       0x98 ./src/gui.o
                0x00013efc                ucPrintBitmapButton
 .text.ucPrintStaticButton
                0x00013f94       0xec ./src/gui.o
                0x00013f94                ucPrintStaticButton
 .text.ucSearchFieldButtonPressed
                0x00014080       0x58 ./src/gui.o
                0x00014080                ucSearchFieldButtonPressed
 .text.ucPrintFieldButton
                0x000140d8       0xe8 ./src/gui.o
                0x000140d8                ucPrintFieldButton
 .text.ucPrintCursorText
                0x000141c0       0x8c ./src/gui.o
                0x000141c0                ucPrintCursorText
 .text.ucPrintTextTouch
                0x0001424c       0x60 ./src/gui.o
                0x0001424c                ucPrintTextTouch
 .text.vCalcCoeffsLcdCalibration
                0x000142ac      0x308 ./src/gui.o
                0x000142ac                vCalcCoeffsLcdCalibration
 .text.ucCalcCrcLcdCalibra
                0x000145b4       0x30 ./src/gui.o
                0x000145b4                ucCalcCrcLcdCalibra
 .text.vSaveCoeffsLcdCalibration
                0x000145e4       0x30 ./src/gui.o
                0x000145e4                vSaveCoeffsLcdCalibration
 .text.vLoadCoeffsLcdCalibration
                0x00014614       0x60 ./src/gui.o
                0x00014614                vLoadCoeffsLcdCalibration
 .text.vLinearizzaPosLcd
                0x00014674      0x264 ./src/gui.o
                0x00014674                vLinearizzaPosLcd
 .text.ucCtrlTouch
                0x000148d8       0xd0 ./src/gui.o
                0x000148d8                ucCtrlTouch
 .text.ucBackGroundCtrlLcd
                0x000149a8       0x18 ./src/gui.o
                0x000149a8                ucBackGroundCtrlLcd
 .text.vCalibraLcd
                0x000149c0      0x308 ./src/gui.o
                0x000149c0                vCalibraLcd
 .text.vEnableCalibraLcd
                0x00014cc8       0x10 ./src/gui.o
                0x00014cc8                vEnableCalibraLcd
 .text.vVisualizeSplashScreen
                0x00014cd8       0x2c ./src/gui.o
                0x00014cd8                vVisualizeSplashScreen
 .text.ucVisualizeSplashScreen
                0x00014d04       0x90 ./src/gui.o
                0x00014d04                ucVisualizeSplashScreen
 .text.vRefreshLcd
                0x00014d94      0x27c ./src/gui.o
                0x00014d94                vRefreshLcd
 .text          0x00015010        0x0 ./src/i2c.o
 .text.I2C0MasterHandler
                0x00015010      0x2d4 ./src/i2c.o
                0x00015010                I2C0MasterHandler
 .text.ui_get_i2c_alarm_subcode
                0x000152e4       0x10 ./src/i2c.o
                0x000152e4                ui_get_i2c_alarm_subcode
 .text.ui_clear_i2c_alarm_subcode
                0x000152f4       0x14 ./src/i2c.o
                0x000152f4                ui_clear_i2c_alarm_subcode
 .text.v_generate_alarm_i2c_bus
                0x00015308       0x40 ./src/i2c.o
                0x00015308                v_generate_alarm_i2c_bus
 .text.v_signal_accessing_eeprom_i2c
                0x00015348       0x10 ./src/i2c.o
                0x00015348                v_signal_accessing_eeprom_i2c
 .text.I2CStart
                0x00015358       0x70 ./src/i2c.o
                0x00015358                I2CStart
 .text.I2CStop  0x000153c8       0x60 ./src/i2c.o
                0x000153c8                I2CStop
 .text.I2CInit  0x00015428       0xb4 ./src/i2c.o
                0x00015428                I2CInit
 .text.I2CEngine
                0x000154dc       0xd0 ./src/i2c.o
                0x000154dc                I2CEngine
 .text.I2CStart_noWait
                0x000155ac       0x20 ./src/i2c.o
                0x000155ac                I2CStart_noWait
 .text.I2CEngine_Start
                0x000155cc       0x5c ./src/i2c.o
                0x000155cc                I2CEngine_Start
 .text.v_i2c_engine_reset
                0x00015628       0x44 ./src/i2c.o
                0x00015628                v_i2c_engine_reset
 .text.I2CEngine_isEnded
                0x0001566c       0x18 ./src/i2c.o
                0x0001566c                I2CEngine_isEnded
 .text.v_verify_unlock_i2c_bus
                0x00015684        0x4 ./src/i2c.o
                0x00015684                v_verify_unlock_i2c_bus
 .text          0x00015688        0x0 ./src/inverse_v1.o
 .text.cofactor_ij_v1
                0x00015688      0x190 ./src/inverse_v1.o
                0x00015688                cofactor_ij_v1
 .text.cofactor_v1
                0x00015818       0x4c ./src/inverse_v1.o
                0x00015818                cofactor_v1
 .text.determinant_v1
                0x00015864       0x44 ./src/inverse_v1.o
                0x00015864                determinant_v1
 .text.transpose_v1
                0x000158a8       0x40 ./src/inverse_v1.o
                0x000158a8                transpose_v1
 .text.mul_v1   0x000158e8       0x50 ./src/inverse_v1.o
                0x000158e8                mul_v1
 .text.inverse_v1
                0x00015938       0x5c ./src/inverse_v1.o
                0x00015938                inverse_v1
 .text.vMultiplyMatrix4x4_Vector
                0x00015994       0x60 ./src/inverse_v1.o
                0x00015994                vMultiplyMatrix4x4_Vector
 .text.vSolve4x4System
                0x000159f4       0x38 ./src/inverse_v1.o
                0x000159f4                vSolve4x4System
 .text          0x00015a2c        0x0 ./src/lcd.o
 .text.ucTouchScreenPressed
                0x00015a2c       0x18 ./src/lcd.o
                0x00015a2c                ucTouchScreenPressed
 .text.vLCD_Init
                0x00015a44       0x48 ./src/lcd.o
                0x00015a44                vLCD_Init
 .text.LCD_SpiAccess
                0x00015a8c       0x38 ./src/lcd.o
                0x00015a8c                LCD_SpiAccess
 .text.ucTouchedScreen
                0x00015ac4      0x138 ./src/lcd.o
                0x00015ac4                ucTouchedScreen
 .text.vResetIntLCD_spi
                0x00015bfc       0x1c ./src/lcd.o
                0x00015bfc                vResetIntLCD_spi
 .text.TFT_write
                0x00015c18        0xc ./src/lcd.o
                0x00015c18                TFT_write
 .text.TFT_read
                0x00015c24        0xc ./src/lcd.o
                0x00015c24                TFT_read
 .text.v_signal_timeout_wating_lcd_int
                0x00015c30       0x18 ./src/lcd.o
                0x00015c30                v_signal_timeout_wating_lcd_int
 .text.LCD_wait_FPGA_done
                0x00015c48       0x8c ./src/lcd.o
                0x00015c48                LCD_wait_FPGA_done
 .text.FPGA_done
                0x00015cd4        0x4 ./src/lcd.o
                0x00015cd4                FPGA_done
 .text.Beep     0x00015cd8        0x8 ./src/lcd.o
                0x00015cd8                Beep
 .text.LCD_Beep
                0x00015ce0        0x4 ./src/lcd.o
                0x00015ce0                LCD_Beep
 .text.Change_bank
                0x00015ce4       0x24 ./src/lcd.o
                0x00015ce4                Change_bank
 .text.LCD_toggle_bank
                0x00015d08       0x1c ./src/lcd.o
                0x00015d08                LCD_toggle_bank
 .text.Read_image_from_flash
                0x00015d24      0x100 ./src/lcd.o
                0x00015d24                Read_image_from_flash
 .text.LCD_LoadImageOnBackgroundBank
                0x00015e24        0x4 ./src/lcd.o
                0x00015e24                LCD_LoadImageOnBackgroundBank
 .text.vWriteBMPelement
                0x00015e28       0xd4 ./src/lcd.o
                0x00015e28                vWriteBMPelement
 .text.ucMapDisplayChar
                0x00015efc       0x18 ./src/lcd.o
                0x00015efc                ucMapDisplayChar
 .text.vWriteIconElement
                0x00015f14      0x170 ./src/lcd.o
                0x00015f14                vWriteIconElement
 .text.vWriteIconElement_N
                0x00016084      0x198 ./src/lcd.o
                0x00016084                vWriteIconElement_N
 .text.vInitListDisplayElements
                0x0001621c       0x54 ./src/lcd.o
                0x0001621c                vInitListDisplayElements
 .text.ucTroppoPienaListaLcd
                0x00016270       0x20 ./src/lcd.o
                0x00016270                ucTroppoPienaListaLcd
 .text.vResetIconsAndBitmap
                0x00016290        0x4 ./src/lcd.o
                0x00016290                vResetIconsAndBitmap
 .text.vCloseListDisplayElements
                0x00016294       0xa0 ./src/lcd.o
                0x00016294                vCloseListDisplayElements
 .text.invio_lista
                0x00016334       0x60 ./src/lcd.o
                0x00016334                invio_lista
 .text.vSelect8bitTouch
                0x00016394        0x8 ./src/lcd.o
                0x00016394                vSelect8bitTouch
 .text.applicazione_lista
                0x0001639c       0x14 ./src/lcd.o
                0x0001639c                applicazione_lista
 .text.lettura_versione_FW
                0x000163b0       0x30 ./src/lcd.o
                0x000163b0                lettura_versione_FW
 .text          0x000163e0        0x0 ./src/main.o
 .text.vInitializeTheDacValues
                0x000163e0       0x2c ./src/main.o
                0x000163e0                vInitializeTheDacValues
 .text.vWaitBootFpga
                0x0001640c      0x14c ./src/main.o
                0x0001640c                vWaitBootFpga
 .text.vPrintSmallTesto_Red
                0x00016558       0x44 ./src/main.o
                0x00016558                vPrintSmallTesto_Red
 .text.vRefreshScreen_Startup
                0x0001659c       0x28 ./src/main.o
                0x0001659c                vRefreshScreen_Startup
 .text.v_print_msg
                0x000165c4       0x18 ./src/main.o
                0x000165c4                v_print_msg
 .text          0x000165dc        0x0 ./src/mci.o
 .text.ulGetPclk.part.4
                0x000165dc       0x70 ./src/mci.o
 .text.MCI_TXEnable
                0x0001664c       0x2c ./src/mci.o
                0x0001664c                MCI_TXEnable
 .text.MCI_TXDisable
                0x00016678       0x2c ./src/mci.o
                0x00016678                MCI_TXDisable
 .text.MCI_RXEnable
                0x000166a4       0x2c ./src/mci.o
                0x000166a4                MCI_RXEnable
 .text.MCI_RXDisable
                0x000166d0       0x2c ./src/mci.o
                0x000166d0                MCI_RXDisable
 .text.MCI_CmdProcess
                0x000166fc       0xd0 ./src/mci.o
                0x000166fc                MCI_CmdProcess
 .text.MCI_DataErrorProcess
                0x000167cc       0xd0 ./src/mci.o
                0x000167cc                MCI_DataErrorProcess
 .text.MCI_DATA_END_InterruptService
                0x0001689c       0xa8 ./src/mci.o
                0x0001689c                MCI_DATA_END_InterruptService
 .text.MCI_FIFOInterruptService
                0x00016944       0x18 ./src/mci.o
                0x00016944                MCI_FIFOInterruptService
 .text.MCI_IRQHandler
                0x0001695c       0xa4 ./src/mci.o
                0x0001695c                MCI_IRQHandler
 .text.ulGetPclk
                0x00016a00       0x14 ./src/mci.o
                0x00016a00                ulGetPclk
 .text.MCI_Set_MCIClock
                0x00016a14       0x78 ./src/mci.o
                0x00016a14                MCI_Set_MCIClock
 .text.MCI_Init
                0x00016a8c      0x124 ./src/mci.o
                0x00016a8c                MCI_Init
 .text.MCI_SendCmd
                0x00016bb0       0xc0 ./src/mci.o
                0x00016bb0                MCI_SendCmd
 .text.MCI_GetCmdResp
                0x00016c70      0x11c ./src/mci.o
                0x00016c70                MCI_GetCmdResp
 .text.MCI_Go_Idle_State
                0x00016d8c       0x24 ./src/mci.o
                0x00016d8c                MCI_Go_Idle_State
 .text.MCI_Send_OP_Cond
                0x00016db0       0x6c ./src/mci.o
                0x00016db0                MCI_Send_OP_Cond
 .text.MCI_Send_ACMD
                0x00016e1c       0x8c ./src/mci.o
                0x00016e1c                MCI_Send_ACMD
 .text.MCI_Send_ACMD_OP_Cond
                0x00016ea8       0xc8 ./src/mci.o
                0x00016ea8                MCI_Send_ACMD_OP_Cond
 .text.ui_send_cmd8
                0x00016f70       0x58 ./src/mci.o
                0x00016f70                ui_send_cmd8
 .text.MCI_CardInit
                0x00016fc8       0x78 ./src/mci.o
                0x00016fc8                MCI_CardInit
 .text.MCI_Check_CID
                0x00017040       0x5c ./src/mci.o
                0x00017040                MCI_Check_CID
 .text.MCI_Set_Address
                0x0001709c       0x9c ./src/mci.o
                0x0001709c                MCI_Set_Address
 .text.vSaveCSD_reg
                0x00017138       0x24 ./src/mci.o
                0x00017138                vSaveCSD_reg
 .text.vCalcSD_capacity
                0x0001715c      0x108 ./src/mci.o
                0x0001715c                vCalcSD_capacity
 .text.MCI_Send_CSD
                0x00017264       0xa0 ./src/mci.o
                0x00017264                MCI_Send_CSD
 .text.MCI_Select_Card
                0x00017304       0xa4 ./src/mci.o
                0x00017304                MCI_Select_Card
 .text.MCI_Send_Status
                0x000173a8       0x90 ./src/mci.o
                0x000173a8                MCI_Send_Status
 .text.MCI_CheckStatus
                0x00017438       0x30 ./src/mci.o
                0x00017438                MCI_CheckStatus
 .text.MCI_Set_BlockLen
                0x00017468       0x88 ./src/mci.o
                0x00017468                MCI_Set_BlockLen
 .text.MCI_Send_ACMD_Bus_Width
                0x000174f0       0x88 ./src/mci.o
                0x000174f0                MCI_Send_ACMD_Bus_Width
 .text.SD_Set_BusWidth
                0x00017578       0x58 ./src/mci.o
                0x00017578                SD_Set_BusWidth
 .text.MCI_Send_Stop
                0x000175d0       0x7c ./src/mci.o
                0x000175d0                MCI_Send_Stop
 .text.MCI_Send_Write_Block
                0x0001764c       0xa0 ./src/mci.o
                0x0001764c                MCI_Send_Write_Block
 .text.MCI_Send_Write_Multiple_Block
                0x000176ec       0xa0 ./src/mci.o
                0x000176ec                MCI_Send_Write_Multiple_Block
 .text.MCI_Write_Multiple_Block
                0x0001778c      0x120 ./src/mci.o
                0x0001778c                MCI_Write_Multiple_Block
 .text.MCI_Send_Read_Block
                0x000178ac       0xa0 ./src/mci.o
                0x000178ac                MCI_Send_Read_Block
 .text.MCI_Write_Block
                0x0001794c       0xbc ./src/mci.o
                0x0001794c                MCI_Write_Block
 .text.MCI_Read_Block
                0x00017a08       0xb8 ./src/mci.o
                0x00017a08                MCI_Read_Block
 .text          0x00017ac0        0x0 ./src/params.o
 .text.vSetHRE_potentiometer.part.2
                0x00017ac0       0x90 ./src/params.o
 .text.v_reset_spindle_and_wheel_dac
                0x00017b50       0x5c ./src/params.o
                0x00017b50                v_reset_spindle_and_wheel_dac
 .text.uc_format_str_len_mult_16
                0x00017bac       0xb8 ./src/params.o
                0x00017bac                uc_format_str_len_mult_16
 .text.v_init_read_bytes_from_vdip
                0x00017c64       0x20 ./src/params.o
                0x00017c64                v_init_read_bytes_from_vdip
 .text.uc_read_a_byte_from_vdip
                0x00017c84      0x14c ./src/params.o
                0x00017c84                uc_read_a_byte_from_vdip
 .text.iSaveMachineParsOnFile_GetExitCode
                0x00017dd0       0x10 ./src/params.o
                0x00017dd0                iSaveMachineParsOnFile_GetExitCode
 .text.fSaveMachineParsOnFile_GetEstimatedDonePerc
                0x00017de0       0x10 ./src/params.o
                0x00017de0                fSaveMachineParsOnFile_GetEstimatedDonePerc
 .text.vInitMachineParsOnFile_Stati
                0x00017df0       0x2c ./src/params.o
                0x00017df0                vInitMachineParsOnFile_Stati
 .text.ui_send_vdip_string
                0x00017e1c      0x2d8 ./src/params.o
                0x00017e1c                ui_send_vdip_string
 .text.ucSaveMachineParsOnFile_Stati
                0x000180f4      0xc00 ./src/params.o
                0x000180f4                ucSaveMachineParsOnFile_Stati
 .text.ucLoadCodiciProdottoOnFile_Stati
                0x00018cf4      0x810 ./src/params.o
                0x00018cf4                ucLoadCodiciProdottoOnFile_Stati
 .text.ucLoadParMacOnFile_Stati
                0x00019504      0x854 ./src/params.o
                0x00019504                ucLoadParMacOnFile_Stati
 .text.ucLoadCustomLanguage_Stati
                0x00019d58      0x448 ./src/params.o
                0x00019d58                ucLoadCustomLanguage_Stati
 .text.vSetNumK_to_ask_password
                0x0001a1a0       0x58 ./src/params.o
                0x0001a1a0                vSetNumK_to_ask_password
 .text.vSetNumK_to_ask_password_super_user
                0x0001a1f8       0x80 ./src/params.o
                0x0001a1f8                vSetNumK_to_ask_password_super_user
 .text.ucVerifyPasswordCorrect
                0x0001a278       0x48 ./src/params.o
                0x0001a278                ucVerifyPasswordCorrect
 .text.ucVerifyPasswordSuperUserCorrect
                0x0001a2c0       0x24 ./src/params.o
                0x0001a2c0                ucVerifyPasswordSuperUserCorrect
 .text.ucCalcWireLengthMetersForJobList
                0x0001a2e4      0x1a4 ./src/params.o
                0x0001a2e4                ucCalcWireLengthMetersForJobList
 .text.vAddStandardButtons
                0x0001a488       0xa0 ./src/params.o
                0x0001a488                vAddStandardButtons
 .text.ucHW_LoadCodiciProdotto
                0x0001a528      0x414 ./src/params.o
                0x0001a528                ucHW_LoadCodiciProdotto
 .text.ucHW_ResetCodiciProdotto
                0x0001a93c      0x320 ./src/params.o
                0x0001a93c                ucHW_ResetCodiciProdotto
 .text.ucHW_LoadCustomLanguage
                0x0001ac5c      0x3fc ./src/params.o
                0x0001ac5c                ucHW_LoadCustomLanguage
 .text.ucHW_LoadParsMac
                0x0001b058      0x434 ./src/params.o
                0x0001b058                ucHW_LoadParsMac
 .text.ucHW_SaveParams
                0x0001b48c      0x490 ./src/params.o
                0x0001b48c                ucHW_SaveParams
 .text.ucHW_DataOra
                0x0001b91c      0x384 ./src/params.o
                0x0001b91c                ucHW_DataOra
 .text.vAddStandardButtonsOk
                0x0001bca0       0xa0 ./src/params.o
                0x0001bca0                vAddStandardButtonsOk
 .text.f_convert_perc_dist_to_float_0_100
                0x0001bd40       0x50 ./src/params.o
                0x0001bd40                f_convert_perc_dist_to_float_0_100
 .text.us_convert_float_0_100_to_perc_dist
                0x0001bd90       0x74 ./src/params.o
                0x0001bd90                us_convert_float_0_100_to_perc_dist
 .text.v_convert_dist_values
                0x0001be04      0x3e4 ./src/params.o
                0x0001be04                v_convert_dist_values
 .text.ucHW_Distanziatore
                0x0001c1e8      0xb2c ./src/params.o
                0x0001c1e8                ucHW_Distanziatore
 .text.vInizializzaCodiceProdotto
                0x0001cd14       0xe8 ./src/params.o
                0x0001cd14                vInizializzaCodiceProdotto
 .text.vHRE_init
                0x0001cdfc       0x20 ./src/params.o
                0x0001cdfc                vHRE_init
 .text.vResetWindows
                0x0001ce1c      0x140 ./src/params.o
                0x0001ce1c                vResetWindows
 .text.vSetHRE_potentiometer
                0x0001cf5c       0x80 ./src/params.o
                0x0001cf5c                vSetHRE_potentiometer
 .text.vSelectHRE_potentiometer
                0x0001cfdc       0xa4 ./src/params.o
                0x0001cfdc                vSelectHRE_potentiometer
 .text.v_init_handling_encoder_grinding
                0x0001d080       0x48 ./src/params.o
 .text.ucHW_spindle_grinding
                0x0001d0c8      0x464 ./src/params.o
                0x0001d0c8                ucHW_spindle_grinding
 .text.ucGetSelectHRE_potentiometer
                0x0001d52c       0x20 ./src/params.o
                0x0001d52c                ucGetSelectHRE_potentiometer
 .text.iGetHRE_potentiometer
                0x0001d54c       0x18 ./src/params.o
                0x0001d54c                iGetHRE_potentiometer
 .text.vDisableHRE_potentiometer
                0x0001d564       0x14 ./src/params.o
                0x0001d564                vDisableHRE_potentiometer
 .text.vHandleHRE
                0x0001d578      0x28c ./src/params.o
                0x0001d578                vHandleHRE
 .text.iGetHRE_setting
                0x0001d804       0x98 ./src/params.o
                0x0001d804                iGetHRE_setting
 .text.vSaltaSuPaginaProduzione
                0x0001d89c       0x18 ./src/params.o
                0x0001d89c                vSaltaSuPaginaProduzione
 .text.ucIAmSpindleGrinding
                0x0001d8b4       0x1c ./src/params.o
                0x0001d8b4                ucIAmSpindleGrinding
 .text.ucIamInLogProduzione
                0x0001d8d0       0x1c ./src/params.o
                0x0001d8d0                ucIamInLogProduzione
 .text.ucIamInTaraturaStatica
                0x0001d8ec       0x30 ./src/params.o
                0x0001d8ec                ucIamInTaraturaStatica
 .text.ucIamInTaraturaDinamica
                0x0001d91c       0x34 ./src/params.o
                0x0001d91c                ucIamInTaraturaDinamica
 .text          0x0001d950        0x0 ./src/popup.o
 .text.f_calc_res_spezzone
                0x0001d950       0x44 ./src/popup.o
                0x0001d950                f_calc_res_spezzone
 .text.us_calc_portata_dinamica_per_resistenza
                0x0001d994       0x58 ./src/popup.o
                0x0001d994                us_calc_portata_dinamica_per_resistenza
 .text.f_calc_res_spec_filo
                0x0001d9ec       0x9c ./src/popup.o
                0x0001d9ec                f_calc_res_spec_filo
 .text.ucHW_MainMenu
                0x0001da88      0x274 ./src/popup.o
                0x0001da88                ucHW_MainMenu
 .text.ucHW_YesNo
                0x0001dcfc      0x284 ./src/popup.o
                0x0001dcfc                ucHW_YesNo
 .text.ValidatePrg
                0x0001df80      0x240 ./src/popup.o
                0x0001df80                ValidatePrg
 .text.ucNeedToClosePopupWindow
                0x0001e1c0       0x44 ./src/popup.o
                0x0001e1c0                ucNeedToClosePopupWindow
 .text.ucHandlePopupWindow
                0x0001e204     0x12fc ./src/popup.o
                0x0001e204                ucHandlePopupWindow
 .text.ucEnableStartLavorazione
                0x0001f500       0x10 ./src/popup.o
                0x0001f500                ucEnableStartLavorazione
 .text.ucIsDisabledStartLavorazione
                0x0001f510       0x18 ./src/popup.o
                0x0001f510                ucIsDisabledStartLavorazione
 .text          0x0001f528        0x0 ./src/rtcDS3231_newer.o
 .text.i2c_Master_Xmit.part.0
                0x0001f528       0x40 ./src/rtcDS3231_newer.o
 .text.i2c_Master_Rcv.part.1
                0x0001f568       0x58 ./src/rtcDS3231_newer.o
 .text.i2c_Master_Xmit
                0x0001f5c0        0xc ./src/rtcDS3231_newer.o
                0x0001f5c0                i2c_Master_Xmit
 .text.i2c_Master_Rcv
                0x0001f5cc        0xc ./src/rtcDS3231_newer.o
                0x0001f5cc                i2c_Master_Rcv
 .text.vReadStatusTempRTC_DS3231
                0x0001f5d8       0xf4 ./src/rtcDS3231_newer.o
                0x0001f5d8                vReadStatusTempRTC_DS3231
 .text.vResetOSF_RTC_DS3231
                0x0001f6cc       0x6c ./src/rtcDS3231_newer.o
                0x0001f6cc                vResetOSF_RTC_DS3231
 .text.vReadTimeBytesRTC_DS3231
                0x0001f738      0x11c ./src/rtcDS3231_newer.o
                0x0001f738                vReadTimeBytesRTC_DS3231
 .text.vWriteTimeBytesRTC_DS3231
                0x0001f854      0x184 ./src/rtcDS3231_newer.o
                0x0001f854                vWriteTimeBytesRTC_DS3231
 .text.vInit_RtcDS3231
                0x0001f9d8       0x10 ./src/rtcDS3231_newer.o
                0x0001f9d8                vInit_RtcDS3231
 .text          0x0001f9e8        0x0 ./src/spi.o
 .text.vUpdateValoriTaratura
                0x0001f9e8      0x4a4 ./src/spi.o
                0x0001f9e8                vUpdateValoriTaratura
 .text.fCalcCoeffCorr
                0x0001fe8c       0x90 ./src/spi.o
                0x0001fe8c                fCalcCoeffCorr
 .text.vCalcAnticipoPretaglio
                0x0001ff1c      0x1e0 ./src/spi.o
                0x0001ff1c                vCalcAnticipoPretaglio
 .text.menuOperation
                0x000200fc       0x14 ./src/spi.o
                0x000200fc                menuOperation
 .text.update_crc
                0x00020110       0x34 ./src/spi.o
                0x00020110                update_crc
 .text.ucCalcCrcMacParams
                0x00020144       0xb0 ./src/spi.o
                0x00020144                ucCalcCrcMacParams
 .text.vSaveMacParms
                0x000201f4       0x30 ./src/spi.o
                0x000201f4                vSaveMacParms
 .text.vCtrlSaveMacParms
                0x00020224       0x20 ./src/spi.o
                0x00020224                vCtrlSaveMacParms
 .text.ucFillStructDist
                0x00020244      0x45c ./src/spi.o
                0x00020244                ucFillStructDist
 .text.ucFillProgramStructDist
                0x000206a0      0x14c ./src/spi.o
                0x000206a0                ucFillProgramStructDist
 .text.request_spindle_stop
                0x000207ec       0x18 ./src/spi.o
                0x000207ec                request_spindle_stop
 .text.upd7Seg  0x00020804      0x980 ./src/spi.o
                0x00020804                upd7Seg
 .text.updInp   0x00021184      0x524 ./src/spi.o
                0x00021184                updInp
 .text.vSetBitOutputsHi
                0x000216a8       0x44 ./src/spi.o
                0x000216a8                vSetBitOutputsHi
 .text.vResetBitOutputsHi
                0x000216ec       0x40 ./src/spi.o
                0x000216ec                vResetBitOutputsHi
 .text.vInitBandella
                0x0002172c       0x5c ./src/spi.o
                0x0002172c                vInitBandella
 .text.vCommandSwitchBandella
                0x00021788       0x14 ./src/spi.o
                0x00021788                vCommandSwitchBandella
 .text.vHandleBandella
                0x0002179c      0x150 ./src/spi.o
                0x0002179c                vHandleBandella
 .text.TxCommessa
                0x000218ec        0x4 ./src/spi.o
                0x000218ec                TxCommessa
 .text.vWaitStartupFpga
                0x000218f0       0x3c ./src/spi.o
                0x000218f0                vWaitStartupFpga
 .text.uiPrepareDescTempComp_ProductionLog
                0x0002192c       0xc4 ./src/spi.o
                0x0002192c                uiPrepareDescTempComp_ProductionLog
 .text.vPrepareDesc_ProductionLog
                0x000219f0      0x598 ./src/spi.o
                0x000219f0                vPrepareDesc_ProductionLog
 .text.vForceLcdRefresh
                0x00021f88       0x14 ./src/spi.o
                0x00021f88                vForceLcdRefresh
 .text.ucLcdRefreshTimeoutReset
                0x00021f9c       0x24 ./src/spi.o
                0x00021f9c                ucLcdRefreshTimeoutReset
 .text.ucLcdRefreshTimeoutExpired
                0x00021fc0       0x84 ./src/spi.o
                0x00021fc0                ucLcdRefreshTimeoutExpired
 .text.ucLcdRefreshTimeoutEnable
                0x00022044       0x3c ./src/spi.o
                0x00022044                ucLcdRefreshTimeoutEnable
 .text.uiLcdRefreshTimeout_GetAct
                0x00022080       0x18 ./src/spi.o
                0x00022080                uiLcdRefreshTimeout_GetAct
 .text.ucNeedToRefreshLcd
                0x00022098       0x60 ./src/spi.o
                0x00022098                ucNeedToRefreshLcd
 .text.ucResetTheButton
                0x000220f8       0x38 ./src/spi.o
                0x000220f8                ucResetTheButton
 .text.ucHasBeenPressedButton
                0x00022130       0x3c ./src/spi.o
                0x00022130                ucHasBeenPressedButton
 .text.ucHasBeenTouchedButton
                0x0002216c       0x38 ./src/spi.o
                0x0002216c                ucHasBeenTouchedButton
 .text.ucCreateTheButton
                0x000221a4       0x30 ./src/spi.o
                0x000221a4                ucCreateTheButton
 .text.ucHW_LogProduzione
                0x000221d4      0x3dc ./src/spi.o
                0x000221d4                ucHW_LogProduzione
 .text.ucIdxCharButtonPressed
                0x000225b0       0x18 ./src/spi.o
                0x000225b0                ucIdxCharButtonPressed
 .text.ucFieldButtonPressed
                0x000225c8       0x18 ./src/spi.o
                0x000225c8                ucFieldButtonPressed
 .text.vSetFieldButtonPressed
                0x000225e0       0x18 ./src/spi.o
                0x000225e0                vSetFieldButtonPressed
 .text.ucTheButtonIsPressed
                0x000225f8       0x34 ./src/spi.o
                0x000225f8                ucTheButtonIsPressed
 .text.us_is_button_pressed
                0x0002262c       0x1c ./src/spi.o
                0x0002262c                us_is_button_pressed
 .text.vClearButtonPressed
                0x00022648       0x14 ./src/spi.o
                0x00022648                vClearButtonPressed
 .text.vSignalButtonPressed
                0x0002265c       0x40 ./src/spi.o
                0x0002265c                vSignalButtonPressed
 .text.vHandleButtons
                0x0002269c       0xec ./src/spi.o
                0x0002269c                vHandleButtons
 .text.vRefreshLcdStrings
                0x00022788       0xe8 ./src/spi.o
                0x00022788                vRefreshLcdStrings
 .text.vSetTextRigaColonna
                0x00022870       0x24 ./src/spi.o
                0x00022870                vSetTextRigaColonna
 .text.vSetCursorOn
                0x00022894       0x1c ./src/spi.o
                0x00022894                vSetCursorOn
 .text.vPrintDirectString
                0x000228b0       0x50 ./src/spi.o
                0x000228b0                vPrintDirectString
 .text.vPrintDirectChar
                0x00022900       0x3c ./src/spi.o
                0x00022900                vPrintDirectChar
 .text.startEdit
                0x0002293c       0xac ./src/spi.o
                0x0002293c                startEdit
 .text.updLcd   0x000229e8      0x138 ./src/spi.o
                0x000229e8                updLcd
 .text.updOut   0x00022b20      0x12c ./src/spi.o
                0x00022b20                updOut
 .text.vInitActPrg
                0x00022c4c       0x64 ./src/spi.o
                0x00022c4c                vInitActPrg
 .text.vHandleBackgroundNandFlash
                0x00022cb0        0x4 ./src/spi.o
                0x00022cb0                vHandleBackgroundNandFlash
 .text.vValidateTabFornitori
                0x00022cb4       0x60 ./src/spi.o
                0x00022cb4                vValidateTabFornitori
 .text.vSearchFirstComm
                0x00022d14       0x54 ./src/spi.o
                0x00022d14                vSearchFirstComm
 .text.mynatoi  0x00022d68       0x58 ./src/spi.o
                0x00022d68                mynatoi
 .text.AdjustVelPeriferica
                0x00022dc0      0x240 ./src/spi.o
                0x00022dc0                AdjustVelPeriferica
 .text.InsertTheProgram
                0x00023000      0x1f8 ./src/spi.o
                0x00023000                InsertTheProgram
 .text.vAggiornaPosizioneColtello
                0x000231f8      0x15c ./src/spi.o
                0x000231f8                vAggiornaPosizioneColtello
 .text.WriteOnDacByPot
                0x00023354       0xc4 ./src/spi.o
                0x00023354                WriteOnDacByPot
 .text.SetPotenziometri
                0x00023418      0x2c8 ./src/spi.o
                0x00023418                SetPotenziometri
 .text.vMacParmsAtDefaultValue
                0x000236e0      0x1ec ./src/spi.o
                0x000236e0                vMacParmsAtDefaultValue
 .text.vLoadMacParms
                0x000238cc       0x90 ./src/spi.o
                0x000238cc                vLoadMacParms
 .text.ValidateMacParms
                0x0002395c      0x324 ./src/spi.o
                0x0002395c                ValidateMacParms
 .text.init     0x00023c80      0x6b8 ./src/spi.o
                0x00023c80                init
 .text.spi_main
                0x00024338       0xcc ./src/spi.o
                0x00024338                spi_main
 .text          0x00024404        0x0 ./src/spidbg.o
 .text.ucHW_setupProduzione
                0x00024404     0x2a24 ./src/spidbg.o
                0x00024404                ucHW_setupProduzione
 .text.vGetValueParametro
                0x00026e28      0x114 ./src/spidbg.o
                0x00026e28                vGetValueParametro
 .text.vSetValueParametro
                0x00026f3c       0xf8 ./src/spidbg.o
                0x00026f3c                vSetValueParametro
 .text.vRefresh_IPM_values
                0x00027034      0x120 ./src/spidbg.o
                0x00027034                vRefresh_IPM_values
 .text.ucHW_ParametriMacchina
                0x00027154      0x9b0 ./src/spidbg.o
                0x00027154                ucHW_ParametriMacchina
 .text.ucHW_Fornitori
                0x00027b04      0x3d4 ./src/spidbg.o
                0x00027b04                ucHW_Fornitori
 .text.vPrintTesto
                0x00027ed8       0x44 ./src/spidbg.o
                0x00027ed8                vPrintTesto
 .text.vRefreshScreen
                0x00027f1c       0x28 ./src/spidbg.o
                0x00027f1c                vRefreshScreen
 .text.vPrintMessage
                0x00027f44       0x38 ./src/spidbg.o
                0x00027f44                vPrintMessage
 .text.vResetRamAndReboot
                0x00027f7c       0xd8 ./src/spidbg.o
                0x00027f7c                vResetRamAndReboot
 .text.ucHW_Utilities
                0x00028054      0x404 ./src/spidbg.o
                0x00028054                ucHW_Utilities
 .text.vHandleButtonsRegulation
                0x00028458      0x234 ./src/spidbg.o
                0x00028458                vHandleButtonsRegulation
 .text.ucHW_InAnalog
                0x0002868c      0x2c8 ./src/spidbg.o
                0x0002868c                ucHW_InAnalog
 .text.ucHW_OutAnalog
                0x00028954      0x23c ./src/spidbg.o
                0x00028954                ucHW_OutAnalog
 .text.ucHW_Indig
                0x00028b90      0x218 ./src/spidbg.o
                0x00028b90                ucHW_Indig
 .text.ucHW_Outdig
                0x00028da8      0x47c ./src/spidbg.o
                0x00028da8                ucHW_Outdig
 .text.ucHW_IngressiEncoder
                0x00029224      0x1e0 ./src/spidbg.o
                0x00029224                ucHW_IngressiEncoder
 .text.ucHW_Taratura_Portata
                0x00029404      0x624 ./src/spidbg.o
                0x00029404                ucHW_Taratura_Portata
 .text.ucHW_Taratura_Portata_1_4
                0x00029a28      0x24c ./src/spidbg.o
                0x00029a28                ucHW_Taratura_Portata_1_4
 .text.ucHW_Taratura_Misura_Dyn_Or_Stat
                0x00029c74      0x248 ./src/spidbg.o
                0x00029c74                ucHW_Taratura_Misura_Dyn_Or_Stat
 .text.ucHW_SelezionaTaratura
                0x00029ebc      0x2f8 ./src/spidbg.o
                0x00029ebc                ucHW_SelezionaTaratura
 .text.ucHW_Info
                0x0002a1b4      0x134 ./src/spidbg.o
                0x0002a1b4                ucHW_Info
 .text.v_preset_for_program_param_input
                0x0002a2e8       0xec ./src/spidbg.o
                0x0002a2e8                v_preset_for_program_param_input
 .text.ucHW_ViewCodiceProdotto
                0x0002a3d4      0x6ac ./src/spidbg.o
                0x0002a3d4                ucHW_ViewCodiceProdotto
 .text.ucHandleWindows
                0x0002aa80      0x2ac ./src/spidbg.o
                0x0002aa80                ucHandleWindows
 .text          0x0002ad2c        0x0 ./src/spiglb.o
 .text          0x0002ad2c        0x0 ./src/spimis.o
 .text.v_init_handle_wait_one_coil
                0x0002ad2c       0x20 ./src/spimis.o
                0x0002ad2c                v_init_handle_wait_one_coil
 .text.ui_handle_wait_one_coil_ok
                0x0002ad4c       0x1c ./src/spimis.o
                0x0002ad4c                ui_handle_wait_one_coil_ok
 .text.v_handle_wait_one_coil
                0x0002ad68       0xa8 ./src/spimis.o
                0x0002ad68                v_handle_wait_one_coil
 .text.timeout_init
                0x0002ae10       0x24 ./src/spimis.o
                0x0002ae10                timeout_init
 .text.uc_timeout_active
                0x0002ae34       0x70 ./src/spimis.o
                0x0002ae34                uc_timeout_active
 .text.mystrcpy
                0x0002aea4       0x30 ./src/spimis.o
                0x0002aea4                mystrcpy
 .text.vCommandSwitchBandella_Interrupt
                0x0002aed4       0x14 ./src/spimis.o
                0x0002aed4                vCommandSwitchBandella_Interrupt
 .text.vInitAD7327
                0x0002aee8       0xdc ./src/spimis.o
                0x0002aee8                vInitAD7327
 .text.vHaltReadCycleSensoreTaglio
                0x0002afc4       0x18 ./src/spimis.o
                0x0002afc4                vHaltReadCycleSensoreTaglio
 .text.vInitSensoreTaglio
                0x0002afdc       0x7c ./src/spimis.o
                0x0002afdc                vInitSensoreTaglio
 .text.vInitReadCycleSensoreTaglio
                0x0002b058       0x38 ./src/spimis.o
                0x0002b058                vInitReadCycleSensoreTaglio
 .text.vLockOperazioneLama
                0x0002b090       0x18 ./src/spimis.o
                0x0002b090                vLockOperazioneLama
 .text.vUnlockOperazioneLama
                0x0002b0a8       0x14 ./src/spimis.o
                0x0002b0a8                vUnlockOperazioneLama
 .text.vAttivaOperazioneLama
                0x0002b0bc      0x100 ./src/spimis.o
                0x0002b0bc                vAttivaOperazioneLama
 .text.ucIsAttivaOperazioneLama
                0x0002b1bc       0x34 ./src/spimis.o
                0x0002b1bc                ucIsAttivaOperazioneLama
 .text.ucRefreshAdchannels_Interrupt
                0x0002b1f0      0x1fc ./src/spimis.o
                0x0002b1f0                ucRefreshAdchannels_Interrupt
 .text.vReadAD7327
                0x0002b3ec      0x12c ./src/spimis.o
                0x0002b3ec                vReadAD7327
 .text.iReadCounter
                0x0002b518       0x54 ./src/spimis.o
                0x0002b518                iReadCounter
 .text.iAzzeraReadCounter_2
                0x0002b56c       0x28 ./src/spimis.o
                0x0002b56c                iAzzeraReadCounter_2
 .text.vInitPosizioneLamaTaglio
                0x0002b594       0x44 ./src/spimis.o
                0x0002b594                vInitPosizioneLamaTaglio
 .text.vSpeedTargetUrp_init
                0x0002b5d8       0x20 ./src/spimis.o
                0x0002b5d8                vSpeedTargetUrp_init
 .text.vSpeedTargetUrp_update
                0x0002b5f8       0x9c ./src/spimis.o
                0x0002b5f8                vSpeedTargetUrp_update
 .text.ulSpeedTargetUrp_get
                0x0002b694       0x10 ./src/spimis.o
                0x0002b694                ulSpeedTargetUrp_get
 .text.l_multiply_long_perc_dist
                0x0002b6a4       0x20 ./src/spimis.o
                0x0002b6a4                l_multiply_long_perc_dist
 .text.v_reset_stato_distanziatore
                0x0002b6c4       0x30 ./src/spimis.o
                0x0002b6c4                v_reset_stato_distanziatore
 .text.iReadCounter_2
                0x0002b6f4       0x80 ./src/spimis.o
                0x0002b6f4                iReadCounter_2
 .text.iInitReadCounter_2
                0x0002b774       0x2c ./src/spimis.o
                0x0002b774                iInitReadCounter_2
 .text.vHandleTaglioAsincrono_Distanziatore
                0x0002b7a0      0x12c ./src/spimis.o
                0x0002b7a0                vHandleTaglioAsincrono_Distanziatore
 .text.ui_separate_coil_during_cut
                0x0002b8cc       0x2c ./src/spimis.o
                0x0002b8cc                ui_separate_coil_during_cut
 .text.vHandleDistanziatore_Interrupt
                0x0002b8f8      0x4ec ./src/spimis.o
                0x0002b8f8                vHandleDistanziatore_Interrupt
 .text.vRefreshInputEdge
                0x0002bde4       0x60 ./src/spimis.o
                0x0002bde4                vRefreshInputEdge
 .text.v_reset_cutter_position
                0x0002be44       0x20 ./src/spimis.o
                0x0002be44                v_reset_cutter_position
 .text.IRQ_Handler_timer0
                0x0002be64     0x205c ./src/spimis.o
                0x0002be64                IRQ_Handler_timer0
 .text.get_ul_timer_interrupt_count
                0x0002dec0       0x10 ./src/spimis.o
                0x0002dec0                get_ul_timer_interrupt_count
 .text.initTimer
                0x0002ded0       0xd4 ./src/spimis.o
                0x0002ded0                initTimer
 .text          0x0002dfa4        0x0 ./src/spiutils.o
 .text.mynatof  0x0002dfa4      0x148 ./src/spiutils.o
                0x0002dfa4                mynatof
 .text.SetDacValue
                0x0002e0ec       0xb0 ./src/spiutils.o
                0x0002e0ec                SetDacValue
 .text.DeleteCommessa
                0x0002e19c       0xc4 ./src/spiutils.o
                0x0002e19c                DeleteCommessa
 .text.SearchNextCommessa
                0x0002e260       0x24 ./src/spiutils.o
                0x0002e260                SearchNextCommessa
 .text.SearchPrevCommessa
                0x0002e284       0x24 ./src/spiutils.o
                0x0002e284                SearchPrevCommessa
 .text.vJumpToWindow
                0x0002e2a8       0x40 ./src/spiutils.o
                0x0002e2a8                vJumpToWindow
 .text.ucIsEmptyStackCaller
                0x0002e2e8       0x18 ./src/spiutils.o
                0x0002e2e8                ucIsEmptyStackCaller
 .text.vEmptyStackCaller
                0x0002e300       0x20 ./src/spiutils.o
                0x0002e300                vEmptyStackCaller
 .text.ucCallWindow
                0x0002e320       0x58 ./src/spiutils.o
                0x0002e320                ucCallWindow
 .text.ucReturnFromWindow
                0x0002e378       0x4c ./src/spiutils.o
                0x0002e378                ucReturnFromWindow
 .text.uiGetIdCurrentWindow
                0x0002e3c4       0x14 ./src/spiutils.o
                0x0002e3c4                uiGetIdCurrentWindow
 .text.uiGetStatusCurrentWindow
                0x0002e3d8       0x20 ./src/spiutils.o
                0x0002e3d8                uiGetStatusCurrentWindow
 .text.vSetStatusCurrentWindow
                0x0002e3f8       0x20 ./src/spiutils.o
                0x0002e3f8                vSetStatusCurrentWindow
 .text.ucSetWindowParam
                0x0002e418       0x2c ./src/spiutils.o
                0x0002e418                ucSetWindowParam
 .text.uiGetWindowParam
                0x0002e444       0x28 ./src/spiutils.o
                0x0002e444                uiGetWindowParam
 .text.uiGetActiveWindowParam
                0x0002e46c       0x2c ./src/spiutils.o
                0x0002e46c                uiGetActiveWindowParam
 .text.vSetActiveWindowParam
                0x0002e498       0x2c ./src/spiutils.o
                0x0002e498                vSetActiveWindowParam
 .text.vStrcpy_padBlank
                0x0002e4c4       0x5c ./src/spiutils.o
                0x0002e4c4                vStrcpy_padBlank
 .text.vStr_fillBlank
                0x0002e520       0x28 ./src/spiutils.o
                0x0002e520                vStr_fillBlank
 .text.vStrUpperCase
                0x0002e548       0x28 ./src/spiutils.o
                0x0002e548                vStrUpperCase
 .text.vStrcpy_trimBlank
                0x0002e570       0xc4 ./src/spiutils.o
                0x0002e570                vStrcpy_trimBlank
 .text.ucIsUmSensitive
                0x0002e634       0x38 ./src/spiutils.o
                0x0002e634                ucIsUmSensitive
 .text.ucT9_handle_button_pressed
                0x0002e66c       0xa8 ./src/spiutils.o
                0x0002e66c                ucT9_handle_button_pressed
 .text.ucPictureNumK_OnlyDigit_1_9_Ok
                0x0002e714       0x3c ./src/spiutils.o
                0x0002e714                ucPictureNumK_OnlyDigit_1_9_Ok
 .text.ucPictureNumK_DigitOk
                0x0002e750       0x60 ./src/spiutils.o
                0x0002e750                ucPictureNumK_DigitOk
 .text.ucPictureNumK_DecimalPointOk
                0x0002e7b0       0x64 ./src/spiutils.o
                0x0002e7b0                ucPictureNumK_DecimalPointOk
 .text.ucPictureNumK_IsNoModify
                0x0002e814       0x30 ./src/spiutils.o
                0x0002e814                ucPictureNumK_IsNoModify
 .text.uiCountEffectiveCharsInPasswordString
                0x0002e844       0x2c ./src/spiutils.o
                0x0002e844                uiCountEffectiveCharsInPasswordString
 .text.ucHW_Num_Keypad
                0x0002e870      0xbf4 ./src/spiutils.o
                0x0002e870                ucHW_Num_Keypad
 .text.ucIsValidHis
                0x0002f464       0x58 ./src/spiutils.o
                0x0002f464                ucIsValidHis
 .text.vValidateHis
                0x0002f4bc       0x14 ./src/spiutils.o
                0x0002f4bc                vValidateHis
 .text.vSetActiveNumberProductCode
                0x0002f4d0       0x50 ./src/spiutils.o
                0x0002f4d0                vSetActiveNumberProductCode
 .text.vInitializeHisFields
                0x0002f520       0x78 ./src/spiutils.o
                0x0002f520                vInitializeHisFields
 .text.vBuildHisCodeFromFields
                0x0002f598       0x44 ./src/spiutils.o
                0x0002f598                vBuildHisCodeFromFields
 .text.DatiInizioCommessa
                0x0002f5dc       0x10 ./src/spiutils.o
                0x0002f5dc                DatiInizioCommessa
 .text.vHandleEscFromMenu
                0x0002f5ec       0x1c ./src/spiutils.o
                0x0002f5ec                vHandleEscFromMenu
 .text.vDoTaglio
                0x0002f608       0x28 ./src/spiutils.o
                0x0002f608                vDoTaglio
 .text.ucHW_codiceProdotto
                0x0002f630     0x1198 ./src/spiutils.o
                0x0002f630                ucHW_codiceProdotto
 .text.ucIsLockedJob
                0x000307c8       0x48 ./src/spiutils.o
                0x000307c8                ucIsLockedJob
 .text.vInitInputEdge
                0x00030810       0x20 ./src/spiutils.o
                0x00030810                vInitInputEdge
 .text.ucDigitalInput_PositiveEdge
                0x00030830       0x1c ./src/spiutils.o
                0x00030830                ucDigitalInput_PositiveEdge
 .text.ucDigitalInput_AtHiLevel
                0x0003084c       0x18 ./src/spiutils.o
                0x0003084c                ucDigitalInput_AtHiLevel
 .text.ucDigitalInput_AtLowLevel
                0x00030864       0x18 ./src/spiutils.o
                0x00030864                ucDigitalInput_AtLowLevel
 .text.ucDigitalInput_NegativeEdge
                0x0003087c       0x1c ./src/spiutils.o
                0x0003087c                ucDigitalInput_NegativeEdge
 .text.vTrasferisciDaCommesseAlistaLavori
                0x00030898      0x148 ./src/spiutils.o
                0x00030898                vTrasferisciDaCommesseAlistaLavori
 .text.inpToOut
                0x000309e0     0x1e6c ./src/spiutils.o
                0x000309e0                inpToOut
 .text.vTrasferisciDaListaLavoriAcommesse
                0x0003284c      0x1dc ./src/spiutils.o
                0x0003284c                vTrasferisciDaListaLavoriAcommesse
 .text.ucHW_listaLavori
                0x00032a28      0x784 ./src/spiutils.o
                0x00032a28                ucHW_listaLavori
 .text.ui_init_fpga_can_handle_wheel_inversion
                0x000331ac       0x3c ./src/spiutils.o
                0x000331ac                ui_init_fpga_can_handle_wheel_inversion
 .text.ui_zeroOK_reset_rotation_wheel_inversion
                0x000331e8       0x44 ./src/spiutils.o
                0x000331e8                ui_zeroOK_reset_rotation_wheel_inversion
 .text.ui_zeroOK_set_rotation_wheel_inversion
                0x0003322c       0x4c ./src/spiutils.o
                0x0003322c                ui_zeroOK_set_rotation_wheel_inversion
 .text.v_test_rotation_wheel_inversion
                0x00033278       0x34 ./src/spiutils.o
                0x00033278                v_test_rotation_wheel_inversion
 .text.v_init_rotation_wheel_inversion
                0x000332ac       0x44 ./src/spiutils.o
                0x000332ac                v_init_rotation_wheel_inversion
 .text          0x000332f0        0x0 ./src/spiwin2.o
 .text.mystricmp
                0x000332f0       0x5c ./src/spiwin2.o
                0x000332f0                mystricmp
 .text.vVerifyInsertCodiceProdotto
                0x0003334c       0x88 ./src/spiwin2.o
                0x0003334c                vVerifyInsertCodiceProdotto
 .text.ucAlignJobsRunningAndSelected
                0x000333d4       0xc4 ./src/spiwin2.o
                0x000333d4                ucAlignJobsRunningAndSelected
 .text.uiGetNumValidationCodeList
                0x00033498       0x10 ./src/spiwin2.o
                0x00033498                uiGetNumValidationCodeList
 .text.vCodelistTouched
                0x000334a8       0x18 ./src/spiwin2.o
                0x000334a8                vCodelistTouched
 .text.vValidateCodeList
                0x000334c0       0x5c ./src/spiwin2.o
                0x000334c0                vValidateCodeList
 .text.ucIsValidCodeList
                0x0003351c       0x44 ./src/spiwin2.o
                0x0003351c                ucIsValidCodeList
 .text.vSetActiveProductCode
                0x00033560       0x98 ./src/spiwin2.o
                0x00033560                vSetActiveProductCode
 .text.vRefreshActiveProductCode
                0x000335f8       0x10 ./src/spiwin2.o
                0x000335f8                vRefreshActiveProductCode
 .text.vUpdateActiveCodeInJobList
                0x00033608       0x3c ./src/spiwin2.o
                0x00033608                vUpdateActiveCodeInJobList
 .text.ucIdxCodeInJobList
                0x00033644       0x60 ./src/spiwin2.o
                0x00033644                ucIdxCodeInJobList
 .text.ucInsertCodeInJobList
                0x000336a4       0x98 ./src/spiwin2.o
                0x000336a4                ucInsertCodeInJobList
 .text.ucDeleteCodeInJobList_Idx
                0x0003373c       0xe0 ./src/spiwin2.o
                0x0003373c                ucDeleteCodeInJobList_Idx
 .text.ucDeleteCodeInJobList
                0x0003381c       0x10 ./src/spiwin2.o
                0x0003381c                ucDeleteCodeInJobList
 .text.ucPurgeManualCodesInJobList
                0x0003382c       0x50 ./src/spiwin2.o
                0x0003382c                ucPurgeManualCodesInJobList
 .text.ucPurgeManualCodesEmptyFromJobList
                0x0003387c       0x5c ./src/spiwin2.o
                0x0003387c                ucPurgeManualCodesEmptyFromJobList
 .text.pFindManualCodeInJobList
                0x000338d8       0x60 ./src/spiwin2.o
                0x000338d8                pFindManualCodeInJobList
 .text.ucPurgeJobList
                0x00033938       0x68 ./src/spiwin2.o
                0x00033938                ucPurgeJobList
 .text.vInitListaCodici
                0x000339a0       0x5c ./src/spiwin2.o
                0x000339a0                vInitListaCodici
 .text.vGetValueParametro_spiwin2
                0x000339fc      0x114 ./src/spiwin2.o
                0x000339fc                vGetValueParametro_spiwin2
 .text.vSetValueParametro_spiwin2
                0x00033b10       0xf8 ./src/spiwin2.o
                0x00033b10                vSetValueParametro_spiwin2
 .text.ucCtrlMinMaxValue
                0x00033c08      0x164 ./src/spiwin2.o
                0x00033c08                ucCtrlMinMaxValue
 .text.vEmptyLavoroInLista
                0x00033d6c       0x58 ./src/spiwin2.o
                0x00033d6c                vEmptyLavoroInLista
 .text.ucHW_modificaLavoro
                0x00033dc4      0xb68 ./src/spiwin2.o
                0x00033dc4                ucHW_modificaLavoro
 .text.ucHW_inserisciOhmMfili
                0x0003492c      0x680 ./src/spiwin2.o
                0x0003492c                ucHW_inserisciOhmMfili
 .text.vCalcTempoResiduo
                0x00034fac      0x144 ./src/spiwin2.o
                0x00034fac                vCalcTempoResiduo
 .text.ucHW_inserisciLottoDiretto
                0x000350f0      0xc90 ./src/spiwin2.o
                0x000350f0                ucHW_inserisciLottoDiretto
 .text.ucHW_CalibraSensore
                0x00035d80      0xd0c ./src/spiwin2.o
                0x00035d80                ucHW_CalibraSensore
 .text.ucHW_CambioBoccola
                0x00036a8c      0x610 ./src/spiwin2.o
                0x00036a8c                ucHW_CambioBoccola
 .text.ucHW_AltriParametriProduzione
                0x0003709c      0x708 ./src/spiwin2.o
                0x0003709c                ucHW_AltriParametriProduzione
 .text.vAggiornaPosizioneSpaziaturaColtello
                0x000377a4      0x128 ./src/spiwin2.o
                0x000377a4                vAggiornaPosizioneSpaziaturaColtello
 .text.ucHW_TaraDistanziatore
                0x000378cc      0x7b4 ./src/spiwin2.o
                0x000378cc                ucHW_TaraDistanziatore
 .text          0x00038080        0x0 ./src/target.o
 .text.TargetInit
                0x00038080        0x4 ./src/target.o
                0x00038080                TargetInit
 .text.GPIOResetInit
                0x00038084       0x80 ./src/target.o
                0x00038084                GPIOResetInit
 .text.ConfigurePLL
                0x00038104       0xf8 ./src/target.o
                0x00038104                ConfigurePLL
 .text.TargetResetInit
                0x000381fc       0x4c ./src/target.o
                0x000381fc                TargetResetInit
 .text          0x00038248        0x0 ./src/vdip.o
 .text.vVdip_pause
                0x00038248       0x18 ./src/vdip.o
                0x00038248                vVdip_pause
 .text.vVdip_very_big_pause
                0x00038260       0x2c ./src/vdip.o
                0x00038260                vVdip_very_big_pause
 .text.vVdip_5ms_pause
                0x0003828c       0x38 ./src/vdip.o
                0x0003828c                vVdip_5ms_pause
 .text.uiVdipHasData
                0x000382c4       0xa0 ./src/vdip.o
                0x000382c4                uiVdipHasData
 .text.vSendVdipChar
                0x00038364       0x54 ./src/vdip.o
                0x00038364                vSendVdipChar
 .text.ucReadVdipByte
                0x000383b8       0x4c ./src/vdip.o
                0x000383b8                ucReadVdipByte
 .text.vReceiveVdipString
                0x00038404       0xec ./src/vdip.o
                0x00038404                vReceiveVdipString
 .text.vSendVdipString
                0x000384f0       0xe8 ./src/vdip.o
                0x000384f0                vSendVdipString
 .text.vSendVdipString_NOCR
                0x000385d8       0xb4 ./src/vdip.o
                0x000385d8                vSendVdipString_NOCR
 .text.vInitVdip
                0x0003868c       0x2c ./src/vdip.o
                0x0003868c                vInitVdip
 .text.ucHandleVdipStati
                0x000386b8      0x3e0 ./src/vdip.o
                0x000386b8                ucHandleVdipStati
 .text          0x00038a98        0x0 ./src/xxtea.o
 .text.xxtea_encode
                0x00038a98      0x110 ./src/xxtea.o
                0x00038a98                xxtea_encode
 .text.xxtea_decode
                0x00038ba8       0xfc ./src/xxtea.o
                0x00038ba8                xxtea_decode
 .text          0x00038ca4        0x0 ./ff9/src/option/ccsbcs.o
 .text.ff_convert
                0x00038ca4       0x70 ./ff9/src/option/ccsbcs.o
                0x00038ca4                ff_convert
 .text.ff_wtoupper
                0x00038d14       0x38 ./ff9/src/option/ccsbcs.o
                0x00038d14                ff_wtoupper
 .text          0x00038d4c        0x0 ./ff9/src/option/syscall.o
 .text          0x00038d4c        0x0 ./ff9/src/ff.o
 .text.mem_cpy  0x00038d4c       0x1c ./ff9/src/ff.o
 .text.mem_set  0x00038d68       0x14 ./ff9/src/ff.o
 .text.sum_sfn  0x00038d7c       0x2c ./ff9/src/ff.o
 .text.get_fileinfo
                0x00038da8      0x180 ./ff9/src/ff.o
 .text.move_window
                0x00038f28       0xd4 ./ff9/src/ff.o
 .text.sync     0x00038ffc      0x104 ./ff9/src/ff.o
 .text.check_fs
                0x00039100       0xb0 ./ff9/src/ff.o
 .text.chk_mounted
                0x000391b0      0x424 ./ff9/src/ff.o
 .text.validate
                0x000395d4       0x4c ./ff9/src/ff.o
 .text.clust2sect
                0x00039620       0x24 ./ff9/src/ff.o
                0x00039620                clust2sect
 .text.get_fat  0x00039644      0x144 ./ff9/src/ff.o
                0x00039644                get_fat
 .text.dir_sdi  0x00039788      0x100 ./ff9/src/ff.o
 .text.put_fat  0x00039888      0x16c ./ff9/src/ff.o
                0x00039888                put_fat
 .text.create_chain
                0x000399f4      0x11c ./ff9/src/ff.o
 .text.dir_next
                0x00039b10      0x19c ./ff9/src/ff.o
 .text.dir_find.part.4
                0x00039cac      0x1ec ./ff9/src/ff.o
 .text.follow_path
                0x00039e98      0x40c ./ff9/src/ff.o
 .text.dir_read
                0x0003a2a4      0x1a8 ./ff9/src/ff.o
 .text.dir_remove
                0x0003a44c       0x88 ./ff9/src/ff.o
 .text.remove_chain
                0x0003a4d4       0xa4 ./ff9/src/ff.o
 .text.gen_numname
                0x0003a578       0xdc ./ff9/src/ff.o
                0x0003a578                gen_numname
 .text.dir_register
                0x0003a654      0x318 ./ff9/src/ff.o
 .text.f_mount  0x0003a96c       0x3c ./ff9/src/ff.o
                0x0003a96c                f_mount
 .text.f_open   0x0003a9a8      0x218 ./ff9/src/ff.o
                0x0003a9a8                f_open
 .text.f_read   0x0003abc0      0x228 ./ff9/src/ff.o
                0x0003abc0                f_read
 .text.f_write  0x0003ade8      0x28c ./ff9/src/ff.o
                0x0003ade8                f_write
 .text.f_sync   0x0003b074      0x114 ./ff9/src/ff.o
                0x0003b074                f_sync
 .text.f_close  0x0003b188       0x1c ./ff9/src/ff.o
                0x0003b188                f_close
 .text.f_chdrive
                0x0003b1a4       0x18 ./ff9/src/ff.o
                0x0003b1a4                f_chdrive
 .text.f_chdir  0x0003b1bc       0xb4 ./ff9/src/ff.o
                0x0003b1bc                f_chdir
 .text.f_getcwd
                0x0003b270      0x21c ./ff9/src/ff.o
                0x0003b270                f_getcwd
 .text.f_lseek  0x0003b48c      0x254 ./ff9/src/ff.o
                0x0003b48c                f_lseek
 .text.f_opendir
                0x0003b6e0       0xbc ./ff9/src/ff.o
                0x0003b6e0                f_opendir
 .text.f_readdir
                0x0003b79c       0xa4 ./ff9/src/ff.o
                0x0003b79c                f_readdir
 .text.f_stat   0x0003b840       0x7c ./ff9/src/ff.o
                0x0003b840                f_stat
 .text.f_getfree
                0x0003b8bc      0x16c ./ff9/src/ff.o
                0x0003b8bc                f_getfree
 .text.f_truncate
                0x0003ba28       0xfc ./ff9/src/ff.o
                0x0003ba28                f_truncate
 .text.f_unlink
                0x0003bb24      0x160 ./ff9/src/ff.o
                0x0003bb24                f_unlink
 .text.f_mkdir  0x0003bc84      0x2a8 ./ff9/src/ff.o
                0x0003bc84                f_mkdir
 .text.f_chmod  0x0003bf2c       0xb0 ./ff9/src/ff.o
                0x0003bf2c                f_chmod
 .text.f_utime  0x0003bfdc       0xbc ./ff9/src/ff.o
                0x0003bfdc                f_utime
 .text.f_rename
                0x0003c098      0x1d8 ./ff9/src/ff.o
                0x0003c098                f_rename
 .text.f_mkfs   0x0003c270      0x7e8 ./ff9/src/ff.o
                0x0003c270                f_mkfs
 .text          0x0003ca58        0x0 ./CANopen_stack/LPC2388/CO_driver.o
 .text.ui_is_enabled_callback
                0x0003ca58       0x54 ./CANopen_stack/LPC2388/CO_driver.o
                0x0003ca58                ui_is_enabled_callback
 .text.canRegisterCallback
                0x0003caac       0x48 ./CANopen_stack/LPC2388/CO_driver.o
                0x0003caac                canRegisterCallback
 .text.can_send
                0x0003caf4      0x118 ./CANopen_stack/LPC2388/CO_driver.o
                0x0003caf4                can_send
 .text.memcpySwap2
                0x0003cc0c        0x4 ./CANopen_stack/LPC2388/CO_driver.o
                0x0003cc0c                memcpySwap2
 .text.memcpySwap4
                0x0003cc10        0x4 ./CANopen_stack/LPC2388/CO_driver.o
                0x0003cc10                memcpySwap4
 .text.CO_CANsetConfigurationMode
                0x0003cc14       0x30 ./CANopen_stack/LPC2388/CO_driver.o
                0x0003cc14                CO_CANsetConfigurationMode
 .text.CO_CANsetNormalMode
                0x0003cc44       0x2c ./CANopen_stack/LPC2388/CO_driver.o
                0x0003cc44                CO_CANsetNormalMode
 .text.CO_CANmodule_init
                0x0003cc70      0x214 ./CANopen_stack/LPC2388/CO_driver.o
                0x0003cc70                CO_CANmodule_init
 .text.CO_CANmodule_delete
                0x0003ce84       0x40 ./CANopen_stack/LPC2388/CO_driver.o
                0x0003ce84                CO_CANmodule_delete
 .text.CO_CANrxBufferInit
                0x0003cec4       0x70 ./CANopen_stack/LPC2388/CO_driver.o
                0x0003cec4                CO_CANrxBufferInit
 .text.CO_CANtxBufferInit
                0x0003cf34       0x5c ./CANopen_stack/LPC2388/CO_driver.o
                0x0003cf34                CO_CANtxBufferInit
 .text.CO_CANsend
                0x0003cf90       0x8c ./CANopen_stack/LPC2388/CO_driver.o
                0x0003cf90                CO_CANsend
 .text.CO_CANclearPendingSyncPDOs
                0x0003d01c        0x8 ./CANopen_stack/LPC2388/CO_driver.o
                0x0003d01c                CO_CANclearPendingSyncPDOs
 .text.CO_CANverifyErrors
                0x0003d024        0x4 ./CANopen_stack/LPC2388/CO_driver.o
                0x0003d024                CO_CANverifyErrors
 .text.CO_CANinterrupt
                0x0003d028      0x120 ./CANopen_stack/LPC2388/CO_driver.o
                0x0003d028                CO_CANinterrupt
 .text          0x0003d148        0x0 ./CANopen_stack/LPC2388/co_od.o
 .text.CO_ODF_2101
                0x0003d148       0x5c ./CANopen_stack/LPC2388/co_od.o
                0x0003d148                CO_ODF_2101
 .text.CO_ODF_2102
                0x0003d1a4       0xd4 ./CANopen_stack/LPC2388/co_od.o
                0x0003d1a4                CO_ODF_2102
 .text.CO_ODF_2107
                0x0003d278       0x8c ./CANopen_stack/LPC2388/co_od.o
                0x0003d278                CO_ODF_2107
 .text          0x0003d304        0x0 ./CANopen_stack/CANopen.o
 .text.CO_delete
                0x0003d304       0xa8 ./CANopen_stack/CANopen.o
                0x0003d304                CO_delete
 .text.CO_init  0x0003d3ac      0x3c0 ./CANopen_stack/CANopen.o
                0x0003d3ac                CO_init
 .text.CO_process
                0x0003d76c       0xd8 ./CANopen_stack/CANopen.o
                0x0003d76c                CO_process
 .text.CO_process_RPDO
                0x0003d844       0x4c ./CANopen_stack/CANopen.o
                0x0003d844                CO_process_RPDO
 .text.CO_process_TPDO
                0x0003d890       0x50 ./CANopen_stack/CANopen.o
                0x0003d890                CO_process_TPDO
 .text          0x0003d8e0        0x0 ./CANopen_stack/CO_Emergency.o
 .text.CO_ODF_1003
                0x0003d8e0       0x84 ./CANopen_stack/CO_Emergency.o
                0x0003d8e0                CO_ODF_1003
 .text.CO_ODF_1014
                0x0003d964       0x34 ./CANopen_stack/CO_Emergency.o
                0x0003d964                CO_ODF_1014
 .text.CO_emergency_init
                0x0003d998      0x1c4 ./CANopen_stack/CO_Emergency.o
                0x0003d998                CO_emergency_init
 .text.CO_emergency_delete
                0x0003db5c       0x50 ./CANopen_stack/CO_Emergency.o
                0x0003db5c                CO_emergency_delete
 .text.CO_errorReport
                0x0003dbac      0x124 ./CANopen_stack/CO_Emergency.o
                0x0003dbac                CO_errorReport
 .text.CO_emergency_process
                0x0003dcd0      0x1fc ./CANopen_stack/CO_Emergency.o
                0x0003dcd0                CO_emergency_process
 .text.CO_errorReset
                0x0003decc      0x114 ./CANopen_stack/CO_Emergency.o
                0x0003decc                CO_errorReset
 .text.CO_isError
                0x0003dfe0       0x20 ./CANopen_stack/CO_Emergency.o
                0x0003dfe0                CO_isError
 .text          0x0003e000        0x0 ./CANopen_stack/CO_HBconsumer.o
 .text.CO_HBcons_receive
                0x0003e000       0x40 ./CANopen_stack/CO_HBconsumer.o
                0x0003e000                CO_HBcons_receive
 .text.CO_HBconsumer_monitoredNodeConfig
                0x0003e040       0xa0 ./CANopen_stack/CO_HBconsumer.o
                0x0003e040                CO_HBconsumer_monitoredNodeConfig
 .text.CO_ODF_1016
                0x0003e0e0      0x128 ./CANopen_stack/CO_HBconsumer.o
                0x0003e0e0                CO_ODF_1016
 .text.CO_HBconsumer_init
                0x0003e208       0xfc ./CANopen_stack/CO_HBconsumer.o
                0x0003e208                CO_HBconsumer_init
 .text.CO_HBconsumer_delete
                0x0003e304       0x34 ./CANopen_stack/CO_HBconsumer.o
                0x0003e304                CO_HBconsumer_delete
 .text.CO_HBconsumer_process
                0x0003e338      0x124 ./CANopen_stack/CO_HBconsumer.o
                0x0003e338                CO_HBconsumer_process
 .text          0x0003e45c        0x0 ./CANopen_stack/CO_NMT_Heartbeat.o
 .text.CO_NMT_receive
                0x0003e45c       0xcc ./CANopen_stack/CO_NMT_Heartbeat.o
                0x0003e45c                CO_NMT_receive
 .text.CO_NMT_init
                0x0003e528       0xec ./CANopen_stack/CO_NMT_Heartbeat.o
                0x0003e528                CO_NMT_init
 .text.CO_NMT_delete
                0x0003e614       0x2c ./CANopen_stack/CO_NMT_Heartbeat.o
                0x0003e614                CO_NMT_delete
 .text.CO_NMT_blinkingProcess50ms
                0x0003e640      0x190 ./CANopen_stack/CO_NMT_Heartbeat.o
                0x0003e640                CO_NMT_blinkingProcess50ms
 .text.CO_NMT_process
                0x0003e7d0      0x358 ./CANopen_stack/CO_NMT_Heartbeat.o
                0x0003e7d0                CO_NMT_process
 .text          0x0003eb28        0x0 ./CANopen_stack/CO_PDO.o
 .text.CO_PDO_receive
                0x0003eb28       0xd0 ./CANopen_stack/CO_PDO.o
                0x0003eb28                CO_PDO_receive
 .text.CO_RPDOconfigCom
                0x0003ebf8       0xa8 ./CANopen_stack/CO_PDO.o
                0x0003ebf8                CO_RPDOconfigCom
 .text.CO_TPDOconfigCom
                0x0003eca0       0x90 ./CANopen_stack/CO_PDO.o
                0x0003eca0                CO_TPDOconfigCom
 .text.CO_PDOfindMap
                0x0003ed30      0x1ac ./CANopen_stack/CO_PDO.o
                0x0003ed30                CO_PDOfindMap
 .text.CO_RPDOconfigMap
                0x0003eedc       0xd0 ./CANopen_stack/CO_PDO.o
                0x0003eedc                CO_RPDOconfigMap
 .text.CO_TPDOconfigMap
                0x0003efac       0xd0 ./CANopen_stack/CO_PDO.o
                0x0003efac                CO_TPDOconfigMap
 .text.CO_ODF_RPDOcom
                0x0003f07c      0x1d8 ./CANopen_stack/CO_PDO.o
                0x0003f07c                CO_ODF_RPDOcom
 .text.CO_ODF_TPDOcom
                0x0003f254      0x2ac ./CANopen_stack/CO_PDO.o
                0x0003f254                CO_ODF_TPDOcom
 .text.CO_ODF_RPDOmap
                0x0003f500      0x180 ./CANopen_stack/CO_PDO.o
                0x0003f500                CO_ODF_RPDOmap
 .text.CO_ODF_TPDOmap
                0x0003f680      0x17c ./CANopen_stack/CO_PDO.o
                0x0003f680                CO_ODF_TPDOmap
 .text.CO_RPDO_init
                0x0003f7fc       0xc8 ./CANopen_stack/CO_PDO.o
                0x0003f7fc                CO_RPDO_init
 .text.CO_RPDO_delete
                0x0003f8c4       0x2c ./CANopen_stack/CO_PDO.o
                0x0003f8c4                CO_RPDO_delete
 .text.CO_TPDO_init
                0x0003f8f0      0x130 ./CANopen_stack/CO_PDO.o
                0x0003f8f0                CO_TPDO_init
 .text.CO_TPDO_delete
                0x0003fa20       0x2c ./CANopen_stack/CO_PDO.o
                0x0003fa20                CO_TPDO_delete
 .text.CO_TPDOisCOS
                0x0003fa4c      0x1c8 ./CANopen_stack/CO_PDO.o
                0x0003fa4c                CO_TPDOisCOS
 .text.CO_TPDOsend
                0x0003fc14       0x50 ./CANopen_stack/CO_PDO.o
                0x0003fc14                CO_TPDOsend
 .text.CO_RPDO_process
                0x0003fc64       0xa0 ./CANopen_stack/CO_PDO.o
                0x0003fc64                CO_RPDO_process
 .text.CO_TPDO_process
                0x0003fd04      0x18c ./CANopen_stack/CO_PDO.o
                0x0003fd04                CO_TPDO_process
 .text          0x0003fe90        0x0 ./CANopen_stack/CO_SDO.o
 .text.CO_SDO_receive
                0x0003fe90       0x80 ./CANopen_stack/CO_SDO.o
                0x0003fe90                CO_SDO_receive
 .text.CO_ODF   0x0003ff10       0x78 ./CANopen_stack/CO_SDO.o
                0x0003ff10                CO_ODF
 .text.CO_ODF_1200
                0x0003ff88       0x78 ./CANopen_stack/CO_SDO.o
                0x0003ff88                CO_ODF_1200
 .text.CO_SDO_delete
                0x00040000       0x34 ./CANopen_stack/CO_SDO.o
                0x00040000                CO_SDO_delete
 .text.CO_OD_find
                0x00040034       0xbc ./CANopen_stack/CO_SDO.o
                0x00040034                CO_OD_find
 .text.CO_OD_configureArgumentForODF
                0x000400f0       0x30 ./CANopen_stack/CO_SDO.o
                0x000400f0                CO_OD_configureArgumentForODF
 .text.CO_SDO_init
                0x00040120      0x124 ./CANopen_stack/CO_SDO.o
                0x00040120                CO_SDO_init
 .text.CO_OD_getLength
                0x00040244       0x54 ./CANopen_stack/CO_SDO.o
                0x00040244                CO_OD_getLength
 .text.CO_OD_getAttribute
                0x00040298       0x48 ./CANopen_stack/CO_SDO.o
                0x00040298                CO_OD_getAttribute
 .text.CO_OD_getDataPointer
                0x000402e0       0x40 ./CANopen_stack/CO_SDO.o
                0x000402e0                CO_OD_getDataPointer
 .text.CO_SDO_abort
                0x00040320       0x78 ./CANopen_stack/CO_SDO.o
                0x00040320                CO_SDO_abort
 .text.CO_SDO_process
                0x00040398      0x6c0 ./CANopen_stack/CO_SDO.o
                0x00040398                CO_SDO_process
 .text          0x00040a58        0x0 ./CANopen_stack/CO_SDOmaster.o
 .text.CO_SDOclient_receive
                0x00040a58       0xb4 ./CANopen_stack/CO_SDOmaster.o
                0x00040a58                CO_SDOclient_receive
 .text.CO_SDOclient_delete
                0x00040b0c       0x2c ./CANopen_stack/CO_SDOmaster.o
                0x00040b0c                CO_SDOclient_delete
 .text.CO_SDOclient_setup
                0x00040b38       0xe0 ./CANopen_stack/CO_SDOmaster.o
                0x00040b38                CO_SDOclient_setup
 .text.CO_SDOclient_init
                0x00040c18       0xa8 ./CANopen_stack/CO_SDOmaster.o
                0x00040c18                CO_SDOclient_init
 .text.CO_SDOclient_abort
                0x00040cc0       0x78 ./CANopen_stack/CO_SDOmaster.o
                0x00040cc0                CO_SDOclient_abort
 .text.CO_SDOclientDownloadInitiate
                0x00040d38      0x12c ./CANopen_stack/CO_SDOmaster.o
                0x00040d38                CO_SDOclientDownloadInitiate
 .text.CO_SDOclientDownload
                0x00040e64      0x37c ./CANopen_stack/CO_SDOmaster.o
                0x00040e64                CO_SDOclientDownload
 .text.CO_SDOclientUploadInitiate
                0x000411e0       0xb4 ./CANopen_stack/CO_SDOmaster.o
                0x000411e0                CO_SDOclientUploadInitiate
 .text.CO_SDOclientUpload
                0x00041294      0x390 ./CANopen_stack/CO_SDOmaster.o
                0x00041294                CO_SDOclientUpload
 .text          0x00041624        0x0 ./CANopen_stack/CO_SYNC.o
 .text.CO_SYNC_receive
                0x00041624       0x88 ./CANopen_stack/CO_SYNC.o
                0x00041624                CO_SYNC_receive
 .text.CO_ODF_1005
                0x000416ac      0x13c ./CANopen_stack/CO_SYNC.o
                0x000416ac                CO_ODF_1005
 .text.CO_ODF_1006
                0x000417e8       0xa4 ./CANopen_stack/CO_SYNC.o
                0x000417e8                CO_ODF_1006
 .text.CO_ODF_1019
                0x0004188c       0x9c ./CANopen_stack/CO_SYNC.o
                0x0004188c                CO_ODF_1019
 .text.CO_SYNC_init
                0x00041928      0x180 ./CANopen_stack/CO_SYNC.o
                0x00041928                CO_SYNC_init
 .text.CO_SYNC_delete
                0x00041aa8       0x2c ./CANopen_stack/CO_SYNC.o
                0x00041aa8                CO_SYNC_delete
 .text.CO_SYNC_process
                0x00041ad4      0x130 ./CANopen_stack/CO_SYNC.o
                0x00041ad4                CO_SYNC_process
 .text          0x00041c04        0x0 /usr/local/lpcxpresso_7.8.0_426/lpcxpresso/tools/bin/../lib/gcc/arm-none-eabi/4.9.3/../../../../arm-none-eabi/lib/libcr_c.a(memcpy.o)
 .text.memcpy   0x00041c04       0x48 /usr/local/lpcxpresso_7.8.0_426/lpcxpresso/tools/bin/../lib/gcc/arm-none-eabi/4.9.3/../../../../arm-none-eabi/lib/libcr_c.a(memcpy.o)
                0x00041c04                memcpy
 .text          0x00041c4c        0x0 /usr/local/lpcxpresso_7.8.0_426/lpcxpresso/tools/bin/../lib/gcc/arm-none-eabi/4.9.3/../../../../arm-none-eabi/lib/libcr_c.a(memset.o)
 .text.memset   0x00041c4c       0x74 /usr/local/lpcxpresso_7.8.0_426/lpcxpresso/tools/bin/../lib/gcc/arm-none-eabi/4.9.3/../../../../arm-none-eabi/lib/libcr_c.a(memset.o)
                0x00041c4c                memset
 .text          0x00041cc0        0x0 /usr/local/lpcxpresso_7.8.0_426/lpcxpresso/tools/bin/../lib/gcc/arm-none-eabi/4.9.3/../../../../arm-none-eabi/lib/libcr_c.a(alloc.o)
 .text.malloc   0x00041cc0      0x148 /usr/local/lpcxpresso_7.8.0_426/lpcxpresso/tools/bin/../lib/gcc/arm-none-eabi/4.9.3/../../../../arm-none-eabi/lib/libcr_c.a(alloc.o)
                0x00041cc0                malloc
 .text.free     0x00041e08       0x48 /usr/local/lpcxpresso_7.8.0_426/lpcxpresso/tools/bin/../lib/gcc/arm-none-eabi/4.9.3/../../../../arm-none-eabi/lib/libcr_c.a(alloc.o)
                0x00041e08                free
 .text.calloc   0x00041e50       0x84 /usr/local/lpcxpresso_7.8.0_426/lpcxpresso/tools/bin/../lib/gcc/arm-none-eabi/4.9.3/../../../../arm-none-eabi/lib/libcr_c.a(alloc.o)
                0x00041e50                calloc
 .text._Csys_alloc
                0x00041ed4       0x30 /usr/local/lpcxpresso_7.8.0_426/lpcxpresso/tools/bin/../lib/gcc/arm-none-eabi/4.9.3/../../../../arm-none-eabi/lib/libcr_c.a(alloc.o)
                0x00041ed4                _Csys_alloc
 .text.realloc  0x00041f04       0x44 /usr/local/lpcxpresso_7.8.0_426/lpcxpresso/tools/bin/../lib/gcc/arm-none-eabi/4.9.3/../../../../arm-none-eabi/lib/libcr_c.a(alloc.o)
                0x00041f04                realloc
 .text          0x00041f48        0x0 /usr/local/lpcxpresso_7.8.0_426/lpcxpresso/tools/bin/../lib/gcc/arm-none-eabi/4.9.3/../../../../arm-none-eabi/lib/libcr_c.a(ctype.o)
 .text.isalnum  0x00041f48       0x18 /usr/local/lpcxpresso_7.8.0_426/lpcxpresso/tools/bin/../lib/gcc/arm-none-eabi/4.9.3/../../../../arm-none-eabi/lib/libcr_c.a(ctype.o)
                0x00041f48                isalnum
 .text.isalpha  0x00041f60       0x18 /usr/local/lpcxpresso_7.8.0_426/lpcxpresso/tools/bin/../lib/gcc/arm-none-eabi/4.9.3/../../../../arm-none-eabi/lib/libcr_c.a(ctype.o)
                0x00041f60                isalpha
 .text.iscntrl  0x00041f78       0x18 /usr/local/lpcxpresso_7.8.0_426/lpcxpresso/tools/bin/../lib/gcc/arm-none-eabi/4.9.3/../../../../arm-none-eabi/lib/libcr_c.a(ctype.o)
                0x00041f78                iscntrl
 .text.isdigit  0x00041f90       0x18 /usr/local/lpcxpresso_7.8.0_426/lpcxpresso/tools/bin/../lib/gcc/arm-none-eabi/4.9.3/../../../../arm-none-eabi/lib/libcr_c.a(ctype.o)
                0x00041f90                isdigit
 .text.isgraph  0x00041fa8       0x18 /usr/local/lpcxpresso_7.8.0_426/lpcxpresso/tools/bin/../lib/gcc/arm-none-eabi/4.9.3/../../../../arm-none-eabi/lib/libcr_c.a(ctype.o)
                0x00041fa8                isgraph
 .text.islower  0x00041fc0       0x18 /usr/local/lpcxpresso_7.8.0_426/lpcxpresso/tools/bin/../lib/gcc/arm-none-eabi/4.9.3/../../../../arm-none-eabi/lib/libcr_c.a(ctype.o)
                0x00041fc0                islower
 .text.isprint  0x00041fd8       0x18 /usr/local/lpcxpresso_7.8.0_426/lpcxpresso/tools/bin/../lib/gcc/arm-none-eabi/4.9.3/../../../../arm-none-eabi/lib/libcr_c.a(ctype.o)
                0x00041fd8                isprint
 .text.ispunct  0x00041ff0       0x18 /usr/local/lpcxpresso_7.8.0_426/lpcxpresso/tools/bin/../lib/gcc/arm-none-eabi/4.9.3/../../../../arm-none-eabi/lib/libcr_c.a(ctype.o)
                0x00041ff0                ispunct
 .text.isspace  0x00042008       0x18 /usr/local/lpcxpresso_7.8.0_426/lpcxpresso/tools/bin/../lib/gcc/arm-none-eabi/4.9.3/../../../../arm-none-eabi/lib/libcr_c.a(ctype.o)
                0x00042008                isspace
 .text.isupper  0x00042020       0x18 /usr/local/lpcxpresso_7.8.0_426/lpcxpresso/tools/bin/../lib/gcc/arm-none-eabi/4.9.3/../../../../arm-none-eabi/lib/libcr_c.a(ctype.o)
                0x00042020                isupper
 .text.isxdigit
                0x00042038       0x18 /usr/local/lpcxpresso_7.8.0_426/lpcxpresso/tools/bin/../lib/gcc/arm-none-eabi/4.9.3/../../../../arm-none-eabi/lib/libcr_c.a(ctype.o)
                0x00042038                isxdigit
 .text.tolower  0x00042050       0x1c /usr/local/lpcxpresso_7.8.0_426/lpcxpresso/tools/bin/../lib/gcc/arm-none-eabi/4.9.3/../../../../arm-none-eabi/lib/libcr_c.a(ctype.o)
                0x00042050                tolower
 .text.toupper  0x0004206c       0x1c /usr/local/lpcxpresso_7.8.0_426/lpcxpresso/tools/bin/../lib/gcc/arm-none-eabi/4.9.3/../../../../arm-none-eabi/lib/libcr_c.a(ctype.o)
                0x0004206c                toupper
 .text          0x00042088        0x0 /usr/local/lpcxpresso_7.8.0_426/lpcxpresso/tools/bin/../lib/gcc/arm-none-eabi/4.9.3/../../../../arm-none-eabi/lib/libcr_c.a(fabs.o)
 .text.fabs     0x00042088       0x38 /usr/local/lpcxpresso_7.8.0_426/lpcxpresso/tools/bin/../lib/gcc/arm-none-eabi/4.9.3/../../../../arm-none-eabi/lib/libcr_c.a(fabs.o)
                0x00042088                fabs
 .text          0x000420c0        0x0 /usr/local/lpcxpresso_7.8.0_426/lpcxpresso/tools/bin/../lib/gcc/arm-none-eabi/4.9.3/../../../../arm-none-eabi/lib/libcr_c.a(fpprintf.o)
 .text.fp_round
                0x000420c0       0x80 /usr/local/lpcxpresso_7.8.0_426/lpcxpresso/tools/bin/../lib/gcc/arm-none-eabi/4.9.3/../../../../arm-none-eabi/lib/libcr_c.a(fpprintf.o)
 .text.pr_dec.constprop.1
                0x00042140       0x44 /usr/local/lpcxpresso_7.8.0_426/lpcxpresso/tools/bin/../lib/gcc/arm-none-eabi/4.9.3/../../../../arm-none-eabi/lib/libcr_c.a(fpprintf.o)
 .text.fprintf  0x00042184       0x40 /usr/local/lpcxpresso_7.8.0_426/lpcxpresso/tools/bin/../lib/gcc/arm-none-eabi/4.9.3/../../../../arm-none-eabi/lib/libcr_c.a(fpprintf.o)
                0x00042184                fprintf
 .text.printf_char
                0x000421c4       0x48 /usr/local/lpcxpresso_7.8.0_426/lpcxpresso/tools/bin/../lib/gcc/arm-none-eabi/4.9.3/../../../../arm-none-eabi/lib/libcr_c.a(fpprintf.o)
                0x000421c4                printf_char
 .text.sprintf  0x0004220c       0xa8 /usr/local/lpcxpresso_7.8.0_426/lpcxpresso/tools/bin/../lib/gcc/arm-none-eabi/4.9.3/../../../../arm-none-eabi/lib/libcr_c.a(fpprintf.o)
                0x0004220c                sprintf
 .text.fp_display
                0x000422b4      0xe5c /usr/local/lpcxpresso_7.8.0_426/lpcxpresso/tools/bin/../lib/gcc/arm-none-eabi/4.9.3/../../../../arm-none-eabi/lib/libcr_c.a(fpprintf.o)
 .text.snprintf
                0x00043110       0xac /usr/local/lpcxpresso_7.8.0_426/lpcxpresso/tools/bin/../lib/gcc/arm-none-eabi/4.9.3/../../../../arm-none-eabi/lib/libcr_c.a(fpprintf.o)
                0x00043110                snprintf
 .text.vfprintf
                0x000431bc       0x2c /usr/local/lpcxpresso_7.8.0_426/lpcxpresso/tools/bin/../lib/gcc/arm-none-eabi/4.9.3/../../../../arm-none-eabi/lib/libcr_c.a(fpprintf.o)
                0x000431bc                vfprintf
 .text.vprintf  0x000431e8       0x34 /usr/local/lpcxpresso_7.8.0_426/lpcxpresso/tools/bin/../lib/gcc/arm-none-eabi/4.9.3/../../../../arm-none-eabi/lib/libcr_c.a(fpprintf.o)
                0x000431e8                vprintf
 .text.vsprintf
                0x0004321c       0x98 /usr/local/lpcxpresso_7.8.0_426/lpcxpresso/tools/bin/../lib/gcc/arm-none-eabi/4.9.3/../../../../arm-none-eabi/lib/libcr_c.a(fpprintf.o)
                0x0004321c                vsprintf
 .text.vsnprintf
                0x000432b4       0x9c /usr/local/lpcxpresso_7.8.0_426/lpcxpresso/tools/bin/../lib/gcc/arm-none-eabi/4.9.3/../../../../arm-none-eabi/lib/libcr_c.a(fpprintf.o)
                0x000432b4                vsnprintf
 .text.printf   0x00043350       0x84 /usr/local/lpcxpresso_7.8.0_426/lpcxpresso/tools/bin/../lib/gcc/arm-none-eabi/4.9.3/../../../../arm-none-eabi/lib/libcr_c.a(fpprintf.o)
                0x00043350                printf
 .text          0x000433d4        0x0 /usr/local/lpcxpresso_7.8.0_426/lpcxpresso/tools/bin/../lib/gcc/arm-none-eabi/4.9.3/../../../../arm-none-eabi/lib/libcr_c.a(memcmp.o)
 .text.memcmp   0x000433d4       0x74 /usr/local/lpcxpresso_7.8.0_426/lpcxpresso/tools/bin/../lib/gcc/arm-none-eabi/4.9.3/../../../../arm-none-eabi/lib/libcr_c.a(memcmp.o)
                0x000433d4                memcmp
 .text          0x00043448        0x0 /usr/local/lpcxpresso_7.8.0_426/lpcxpresso/tools/bin/../lib/gcc/arm-none-eabi/4.9.3/../../../../arm-none-eabi/lib/libcr_c.a(printf.o)
 .text.no_fp_display
                0x00043448        0x8 /usr/local/lpcxpresso_7.8.0_426/lpcxpresso/tools/bin/../lib/gcc/arm-none-eabi/4.9.3/../../../../arm-none-eabi/lib/libcr_c.a(printf.o)
 .text.__vfprintf
                0x00043450     0x123c /usr/local/lpcxpresso_7.8.0_426/lpcxpresso/tools/bin/../lib/gcc/arm-none-eabi/4.9.3/../../../../arm-none-eabi/lib/libcr_c.a(printf.o)
                0x00043450                __vfprintf
 .text._fprintf
                0x0004468c       0x40 /usr/local/lpcxpresso_7.8.0_426/lpcxpresso/tools/bin/../lib/gcc/arm-none-eabi/4.9.3/../../../../arm-none-eabi/lib/libcr_c.a(printf.o)
                0x0004468c                _fprintf
 .text._printf_char
                0x000446cc       0x48 /usr/local/lpcxpresso_7.8.0_426/lpcxpresso/tools/bin/../lib/gcc/arm-none-eabi/4.9.3/../../../../arm-none-eabi/lib/libcr_c.a(printf.o)
                0x000446cc                _printf_char
 .text._sprintf
                0x00044714       0xa8 /usr/local/lpcxpresso_7.8.0_426/lpcxpresso/tools/bin/../lib/gcc/arm-none-eabi/4.9.3/../../../../arm-none-eabi/lib/libcr_c.a(printf.o)
                0x00044714                _sprintf
 .text._snprintf
                0x000447bc       0xac /usr/local/lpcxpresso_7.8.0_426/lpcxpresso/tools/bin/../lib/gcc/arm-none-eabi/4.9.3/../../../../arm-none-eabi/lib/libcr_c.a(printf.o)
                0x000447bc                _snprintf
 .text._vfprintf
                0x00044868       0x2c /usr/local/lpcxpresso_7.8.0_426/lpcxpresso/tools/bin/../lib/gcc/arm-none-eabi/4.9.3/../../../../arm-none-eabi/lib/libcr_c.a(printf.o)
                0x00044868                _vfprintf
 .text._vprintf
                0x00044894       0x34 /usr/local/lpcxpresso_7.8.0_426/lpcxpresso/tools/bin/../lib/gcc/arm-none-eabi/4.9.3/../../../../arm-none-eabi/lib/libcr_c.a(printf.o)
                0x00044894                _vprintf
 .text._vsprintf
                0x000448c8       0x98 /usr/local/lpcxpresso_7.8.0_426/lpcxpresso/tools/bin/../lib/gcc/arm-none-eabi/4.9.3/../../../../arm-none-eabi/lib/libcr_c.a(printf.o)
                0x000448c8                _vsprintf
 .text._vsnprintf
                0x00044960       0x9c /usr/local/lpcxpresso_7.8.0_426/lpcxpresso/tools/bin/../lib/gcc/arm-none-eabi/4.9.3/../../../../arm-none-eabi/lib/libcr_c.a(printf.o)
                0x00044960                _vsnprintf
 .text._printf  0x000449fc       0x84 /usr/local/lpcxpresso_7.8.0_426/lpcxpresso/tools/bin/../lib/gcc/arm-none-eabi/4.9.3/../../../../arm-none-eabi/lib/libcr_c.a(printf.o)
                0x000449fc                _printf
 .text          0x00044a80        0x0 /usr/local/lpcxpresso_7.8.0_426/lpcxpresso/tools/bin/../lib/gcc/arm-none-eabi/4.9.3/../../../../arm-none-eabi/lib/libcr_c.a(scanf.o)
 .text.ch_val   0x00044a80       0x40 /usr/local/lpcxpresso_7.8.0_426/lpcxpresso/tools/bin/../lib/gcc/arm-none-eabi/4.9.3/../../../../arm-none-eabi/lib/libcr_c.a(scanf.o)
 .text._strtoul
                0x00044ac0      0x118 /usr/local/lpcxpresso_7.8.0_426/lpcxpresso/tools/bin/../lib/gcc/arm-none-eabi/4.9.3/../../../../arm-none-eabi/lib/libcr_c.a(scanf.o)
 .text.cr_rd_int
                0x00044bd8      0x294 /usr/local/lpcxpresso_7.8.0_426/lpcxpresso/tools/bin/../lib/gcc/arm-none-eabi/4.9.3/../../../../arm-none-eabi/lib/libcr_c.a(scanf.o)
 .text.vfscanf  0x00044e6c      0xe00 /usr/local/lpcxpresso_7.8.0_426/lpcxpresso/tools/bin/../lib/gcc/arm-none-eabi/4.9.3/../../../../arm-none-eabi/lib/libcr_c.a(scanf.o)
                0x00044e6c                vfscanf
 .text._ncc_vfscanf
                0x00045c6c        0x4 /usr/local/lpcxpresso_7.8.0_426/lpcxpresso/tools/bin/../lib/gcc/arm-none-eabi/4.9.3/../../../../arm-none-eabi/lib/libcr_c.a(scanf.o)
                0x00045c6c                _ncc_vfscanf
 .text.fscanf   0x00045c70       0x28 /usr/local/lpcxpresso_7.8.0_426/lpcxpresso/tools/bin/../lib/gcc/arm-none-eabi/4.9.3/../../../../arm-none-eabi/lib/libcr_c.a(scanf.o)
                0x00045c70                fscanf
 .text.scanf    0x00045c98       0x30 /usr/local/lpcxpresso_7.8.0_426/lpcxpresso/tools/bin/../lib/gcc/arm-none-eabi/4.9.3/../../../../arm-none-eabi/lib/libcr_c.a(scanf.o)
                0x00045c98                scanf
 .text.sscanf   0x00045cc8       0x7c /usr/local/lpcxpresso_7.8.0_426/lpcxpresso/tools/bin/../lib/gcc/arm-none-eabi/4.9.3/../../../../arm-none-eabi/lib/libcr_c.a(scanf.o)
                0x00045cc8                sscanf
 .text.strtod   0x00045d44       0x64 /usr/local/lpcxpresso_7.8.0_426/lpcxpresso/tools/bin/../lib/gcc/arm-none-eabi/4.9.3/../../../../arm-none-eabi/lib/libcr_c.a(scanf.o)
                0x00045d44                strtod
 .text.strtof   0x00045da8       0x14 /usr/local/lpcxpresso_7.8.0_426/lpcxpresso/tools/bin/../lib/gcc/arm-none-eabi/4.9.3/../../../../arm-none-eabi/lib/libcr_c.a(scanf.o)
                0x00045da8                strtof
 .text.strtol   0x00045dbc       0xc4 /usr/local/lpcxpresso_7.8.0_426/lpcxpresso/tools/bin/../lib/gcc/arm-none-eabi/4.9.3/../../../../arm-none-eabi/lib/libcr_c.a(scanf.o)
                0x00045dbc                strtol
 .text.strtoul  0x00045e80       0xcc /usr/local/lpcxpresso_7.8.0_426/lpcxpresso/tools/bin/../lib/gcc/arm-none-eabi/4.9.3/../../../../arm-none-eabi/lib/libcr_c.a(scanf.o)
                0x00045e80                strtoul
 .text.atof     0x00045f4c       0x24 /usr/local/lpcxpresso_7.8.0_426/lpcxpresso/tools/bin/../lib/gcc/arm-none-eabi/4.9.3/../../../../arm-none-eabi/lib/libcr_c.a(scanf.o)
                0x00045f4c                atof
 .text.atoi     0x00045f70       0x28 /usr/local/lpcxpresso_7.8.0_426/lpcxpresso/tools/bin/../lib/gcc/arm-none-eabi/4.9.3/../../../../arm-none-eabi/lib/libcr_c.a(scanf.o)
                0x00045f70                atoi
 .text.atol     0x00045f98       0x28 /usr/local/lpcxpresso_7.8.0_426/lpcxpresso/tools/bin/../lib/gcc/arm-none-eabi/4.9.3/../../../../arm-none-eabi/lib/libcr_c.a(scanf.o)
                0x00045f98                atol
 .text          0x00045fc0        0x0 /usr/local/lpcxpresso_7.8.0_426/lpcxpresso/tools/bin/../lib/gcc/arm-none-eabi/4.9.3/../../../../arm-none-eabi/lib/libcr_c.a(stdio.o)
 .text.fgetc    0x00045fc0       0x30 /usr/local/lpcxpresso_7.8.0_426/lpcxpresso/tools/bin/../lib/gcc/arm-none-eabi/4.9.3/../../../../arm-none-eabi/lib/libcr_c.a(stdio.o)
                0x00045fc0                fgetc
 .text.fputc    0x00045ff0       0x44 /usr/local/lpcxpresso_7.8.0_426/lpcxpresso/tools/bin/../lib/gcc/arm-none-eabi/4.9.3/../../../../arm-none-eabi/lib/libcr_c.a(stdio.o)
                0x00045ff0                fputc
 .text.getc     0x00046034       0x30 /usr/local/lpcxpresso_7.8.0_426/lpcxpresso/tools/bin/../lib/gcc/arm-none-eabi/4.9.3/../../../../arm-none-eabi/lib/libcr_c.a(stdio.o)
                0x00046034                getc
 .text.getchar  0x00046064       0x38 /usr/local/lpcxpresso_7.8.0_426/lpcxpresso/tools/bin/../lib/gcc/arm-none-eabi/4.9.3/../../../../arm-none-eabi/lib/libcr_c.a(stdio.o)
                0x00046064                getchar
 .text.putc     0x0004609c       0x44 /usr/local/lpcxpresso_7.8.0_426/lpcxpresso/tools/bin/../lib/gcc/arm-none-eabi/4.9.3/../../../../arm-none-eabi/lib/libcr_c.a(stdio.o)
                0x0004609c                putc
 .text.putchar  0x000460e0       0x4c /usr/local/lpcxpresso_7.8.0_426/lpcxpresso/tools/bin/../lib/gcc/arm-none-eabi/4.9.3/../../../../arm-none-eabi/lib/libcr_c.a(stdio.o)
                0x000460e0                putchar
 .text.feof     0x0004612c        0xc /usr/local/lpcxpresso_7.8.0_426/lpcxpresso/tools/bin/../lib/gcc/arm-none-eabi/4.9.3/../../../../arm-none-eabi/lib/libcr_c.a(stdio.o)
                0x0004612c                feof
 .text.ferror   0x00046138        0xc /usr/local/lpcxpresso_7.8.0_426/lpcxpresso/tools/bin/../lib/gcc/arm-none-eabi/4.9.3/../../../../arm-none-eabi/lib/libcr_c.a(stdio.o)
                0x00046138                ferror
 .text.clearerr
                0x00046144       0x14 /usr/local/lpcxpresso_7.8.0_426/lpcxpresso/tools/bin/../lib/gcc/arm-none-eabi/4.9.3/../../../../arm-none-eabi/lib/libcr_c.a(stdio.o)
                0x00046144                clearerr
 .text          0x00046158        0x0 /usr/local/lpcxpresso_7.8.0_426/lpcxpresso/tools/bin/../lib/gcc/arm-none-eabi/4.9.3/../../../../arm-none-eabi/lib/libcr_c.a(stdlib.o)
 .text.__rand   0x00046158       0x30 /usr/local/lpcxpresso_7.8.0_426/lpcxpresso/tools/bin/../lib/gcc/arm-none-eabi/4.9.3/../../../../arm-none-eabi/lib/libcr_c.a(stdlib.o)
                0x00046158                __rand
 .text.__srand  0x00046188       0x10 /usr/local/lpcxpresso_7.8.0_426/lpcxpresso/tools/bin/../lib/gcc/arm-none-eabi/4.9.3/../../../../arm-none-eabi/lib/libcr_c.a(stdlib.o)
                0x00046188                __srand
 .text.rand     0x00046198       0x60 /usr/local/lpcxpresso_7.8.0_426/lpcxpresso/tools/bin/../lib/gcc/arm-none-eabi/4.9.3/../../../../arm-none-eabi/lib/libcr_c.a(stdlib.o)
                0x00046198                rand
 .text.srand    0x000461f8       0x5c /usr/local/lpcxpresso_7.8.0_426/lpcxpresso/tools/bin/../lib/gcc/arm-none-eabi/4.9.3/../../../../arm-none-eabi/lib/libcr_c.a(stdlib.o)
                0x000461f8                srand
 .text._exit_init
                0x00046254       0x14 /usr/local/lpcxpresso_7.8.0_426/lpcxpresso/tools/bin/../lib/gcc/arm-none-eabi/4.9.3/../../../../arm-none-eabi/lib/libcr_c.a(stdlib.o)
                0x00046254                _exit_init
 .text.atexit   0x00046268       0x30 /usr/local/lpcxpresso_7.8.0_426/lpcxpresso/tools/bin/../lib/gcc/arm-none-eabi/4.9.3/../../../../arm-none-eabi/lib/libcr_c.a(stdlib.o)
                0x00046268                atexit
 .text.exit     0x00046298       0x48 /usr/local/lpcxpresso_7.8.0_426/lpcxpresso/tools/bin/../lib/gcc/arm-none-eabi/4.9.3/../../../../arm-none-eabi/lib/libcr_c.a(stdlib.o)
                0x00046298                exit
 .text.abort    0x000462e0       0x18 /usr/local/lpcxpresso_7.8.0_426/lpcxpresso/tools/bin/../lib/gcc/arm-none-eabi/4.9.3/../../../../arm-none-eabi/lib/libcr_c.a(stdlib.o)
                0x000462e0                abort
 .text.abs      0x000462f8        0xc /usr/local/lpcxpresso_7.8.0_426/lpcxpresso/tools/bin/../lib/gcc/arm-none-eabi/4.9.3/../../../../arm-none-eabi/lib/libcr_c.a(stdlib.o)
                0x000462f8                abs
 .text.labs     0x00046304        0xc /usr/local/lpcxpresso_7.8.0_426/lpcxpresso/tools/bin/../lib/gcc/arm-none-eabi/4.9.3/../../../../arm-none-eabi/lib/libcr_c.a(stdlib.o)
                0x00046304                labs
 .text.div      0x00046310       0x3c /usr/local/lpcxpresso_7.8.0_426/lpcxpresso/tools/bin/../lib/gcc/arm-none-eabi/4.9.3/../../../../arm-none-eabi/lib/libcr_c.a(stdlib.o)
                0x00046310                div
 .text.ldiv     0x0004634c       0x3c /usr/local/lpcxpresso_7.8.0_426/lpcxpresso/tools/bin/../lib/gcc/arm-none-eabi/4.9.3/../../../../arm-none-eabi/lib/libcr_c.a(stdlib.o)
                0x0004634c                ldiv
 .text          0x00046388        0x0 /usr/local/lpcxpresso_7.8.0_426/lpcxpresso/tools/bin/../lib/gcc/arm-none-eabi/4.9.3/../../../../arm-none-eabi/lib/libcr_c.a(strcat.o)
 .text.strcat   0x00046388       0x30 /usr/local/lpcxpresso_7.8.0_426/lpcxpresso/tools/bin/../lib/gcc/arm-none-eabi/4.9.3/../../../../arm-none-eabi/lib/libcr_c.a(strcat.o)
                0x00046388                strcat
 .text          0x000463b8        0x0 /usr/local/lpcxpresso_7.8.0_426/lpcxpresso/tools/bin/../lib/gcc/arm-none-eabi/4.9.3/../../../../arm-none-eabi/lib/libcr_c.a(strchr.o)
 .text.strchr   0x000463b8       0x2c /usr/local/lpcxpresso_7.8.0_426/lpcxpresso/tools/bin/../lib/gcc/arm-none-eabi/4.9.3/../../../../arm-none-eabi/lib/libcr_c.a(strchr.o)
                0x000463b8                strchr
 .text          0x000463e4        0x0 /usr/local/lpcxpresso_7.8.0_426/lpcxpresso/tools/bin/../lib/gcc/arm-none-eabi/4.9.3/../../../../arm-none-eabi/lib/libcr_c.a(strcmp.o)
 .text.strcmp   0x000463e4       0x80 /usr/local/lpcxpresso_7.8.0_426/lpcxpresso/tools/bin/../lib/gcc/arm-none-eabi/4.9.3/../../../../arm-none-eabi/lib/libcr_c.a(strcmp.o)
                0x000463e4                strcmp
 .text          0x00046464        0x0 /usr/local/lpcxpresso_7.8.0_426/lpcxpresso/tools/bin/../lib/gcc/arm-none-eabi/4.9.3/../../../../arm-none-eabi/lib/libcr_c.a(strcpy.o)
 .text.strcpy   0x00046464       0x7c /usr/local/lpcxpresso_7.8.0_426/lpcxpresso/tools/bin/../lib/gcc/arm-none-eabi/4.9.3/../../../../arm-none-eabi/lib/libcr_c.a(strcpy.o)
                0x00046464                strcpy
 .text          0x000464e0        0x0 /usr/local/lpcxpresso_7.8.0_426/lpcxpresso/tools/bin/../lib/gcc/arm-none-eabi/4.9.3/../../../../arm-none-eabi/lib/libcr_c.a(strlen.o)
 .text.strlen   0x000464e0       0x80 /usr/local/lpcxpresso_7.8.0_426/lpcxpresso/tools/bin/../lib/gcc/arm-none-eabi/4.9.3/../../../../arm-none-eabi/lib/libcr_c.a(strlen.o)
                0x000464e0                strlen
 .text          0x00046560        0x0 /usr/local/lpcxpresso_7.8.0_426/lpcxpresso/tools/bin/../lib/gcc/arm-none-eabi/4.9.3/../../../../arm-none-eabi/lib/libcr_c.a(strncat.o)
 .text.strncat  0x00046560       0x4c /usr/local/lpcxpresso_7.8.0_426/lpcxpresso/tools/bin/../lib/gcc/arm-none-eabi/4.9.3/../../../../arm-none-eabi/lib/libcr_c.a(strncat.o)
                0x00046560                strncat
 .text          0x000465ac        0x0 /usr/local/lpcxpresso_7.8.0_426/lpcxpresso/tools/bin/../lib/gcc/arm-none-eabi/4.9.3/../../../../arm-none-eabi/lib/libcr_c.a(strncmp.o)
 .text.strncmp  0x000465ac       0xa0 /usr/local/lpcxpresso_7.8.0_426/lpcxpresso/tools/bin/../lib/gcc/arm-none-eabi/4.9.3/../../../../arm-none-eabi/lib/libcr_c.a(strncmp.o)
                0x000465ac                strncmp
 .text          0x0004664c        0x0 /usr/local/lpcxpresso_7.8.0_426/lpcxpresso/tools/bin/../lib/gcc/arm-none-eabi/4.9.3/../../../../arm-none-eabi/lib/libcr_c.a(strncpy.o)
 .text.strncpy  0x0004664c       0xa4 /usr/local/lpcxpresso_7.8.0_426/lpcxpresso/tools/bin/../lib/gcc/arm-none-eabi/4.9.3/../../../../arm-none-eabi/lib/libcr_c.a(strncpy.o)
                0x0004664c                strncpy
 .text          0x000466f0        0x0 /usr/local/lpcxpresso_7.8.0_426/lpcxpresso/tools/bin/../lib/gcc/arm-none-eabi/4.9.3/../../../../arm-none-eabi/lib/libcr_c.a(strstr.o)
 .text.strstr   0x000466f0       0x34 /usr/local/lpcxpresso_7.8.0_426/lpcxpresso/tools/bin/../lib/gcc/arm-none-eabi/4.9.3/../../../../arm-none-eabi/lib/libcr_c.a(strstr.o)
                0x000466f0                strstr
 .text          0x00046724        0x0 /usr/local/lpcxpresso_7.8.0_426/lpcxpresso/tools/bin/../lib/gcc/arm-none-eabi/4.9.3/../../../../arm-none-eabi/lib/libcr_c.a(ungetc.o)
 .text.ungetc   0x00046724       0x58 /usr/local/lpcxpresso_7.8.0_426/lpcxpresso/tools/bin/../lib/gcc/arm-none-eabi/4.9.3/../../../../arm-none-eabi/lib/libcr_c.a(ungetc.o)
                0x00046724                ungetc
 .text          0x0004677c        0x0 /usr/local/lpcxpresso_7.8.0_426/lpcxpresso/tools/bin/../lib/gcc/arm-none-eabi/4.9.3/../../../../arm-none-eabi/lib/libcr_c.a(__fillbuf.o)
 .text._Csys_read_
                0x0004677c       0x30 /usr/local/lpcxpresso_7.8.0_426/lpcxpresso/tools/bin/../lib/gcc/arm-none-eabi/4.9.3/../../../../arm-none-eabi/lib/libcr_c.a(__fillbuf.o)
                0x0004677c                _Csys_read_
 .text.__filbuf
                0x000467ac      0x270 /usr/local/lpcxpresso_7.8.0_426/lpcxpresso/tools/bin/../lib/gcc/arm-none-eabi/4.9.3/../../../../arm-none-eabi/lib/libcr_c.a(__fillbuf.o)
                0x000467ac                __filbuf
 .text._fillb2  0x00046a1c       0x38 /usr/local/lpcxpresso_7.8.0_426/lpcxpresso/tools/bin/../lib/gcc/arm-none-eabi/4.9.3/../../../../arm-none-eabi/lib/libcr_c.a(__fillbuf.o)
                0x00046a1c                _fillb2
 .text          0x00046a54        0x0 /usr/local/lpcxpresso_7.8.0_426/lpcxpresso/tools/bin/../lib/gcc/arm-none-eabi/4.9.3/../../../../arm-none-eabi/lib/libcr_c.a(__init_alloc.o)
 .text._init_alloc
                0x00046a54       0x20 /usr/local/lpcxpresso_7.8.0_426/lpcxpresso/tools/bin/../lib/gcc/arm-none-eabi/4.9.3/../../../../arm-none-eabi/lib/libcr_c.a(__init_alloc.o)
                0x00046a54                _init_alloc
 .text          0x00046a74        0x0 /usr/local/lpcxpresso_7.8.0_426/lpcxpresso/tools/bin/../lib/gcc/arm-none-eabi/4.9.3/../../../../arm-none-eabi/lib/libcr_c.a(_cr_sbrk.o)
 .text._sbrk    0x00046a74       0x64 /usr/local/lpcxpresso_7.8.0_426/lpcxpresso/tools/bin/../lib/gcc/arm-none-eabi/4.9.3/../../../../arm-none-eabi/lib/libcr_c.a(_cr_sbrk.o)
                0x00046a74                _sbrk
 .text          0x00046ad8        0x0 /usr/local/lpcxpresso_7.8.0_426/lpcxpresso/tools/bin/../lib/gcc/arm-none-eabi/4.9.3/../../../../arm-none-eabi/lib/libcr_c.a(_deferredlazyseek.o)
 .text._deferredlazyseek
                0x00046ad8       0x70 /usr/local/lpcxpresso_7.8.0_426/lpcxpresso/tools/bin/../lib/gcc/arm-none-eabi/4.9.3/../../../../arm-none-eabi/lib/libcr_c.a(_deferredlazyseek.o)
                0x00046ad8                _deferredlazyseek
 .text.__flsbuf
                0x00046b48      0x21c /usr/local/lpcxpresso_7.8.0_426/lpcxpresso/tools/bin/../lib/gcc/arm-none-eabi/4.9.3/../../../../arm-none-eabi/lib/libcr_c.a(_deferredlazyseek.o)
                0x00046b48                __flsbuf
 .text          0x00046d64        0x0 /usr/local/lpcxpresso_7.8.0_426/lpcxpresso/tools/bin/../lib/gcc/arm-none-eabi/4.9.3/../../../../arm-none-eabi/lib/libcr_c.a(_fflush.o)
 .text._fflush  0x00046d64       0x98 /usr/local/lpcxpresso_7.8.0_426/lpcxpresso/tools/bin/../lib/gcc/arm-none-eabi/4.9.3/../../../../arm-none-eabi/lib/libcr_c.a(_fflush.o)
                0x00046d64                _fflush
 .text          0x00046dfc        0x0 /usr/local/lpcxpresso_7.8.0_426/lpcxpresso/tools/bin/../lib/gcc/arm-none-eabi/4.9.3/../../../../arm-none-eabi/lib/libcr_c.a(_frexpl.o)
 .text._frexpl  0x00046dfc       0xb0 /usr/local/lpcxpresso_7.8.0_426/lpcxpresso/tools/bin/../lib/gcc/arm-none-eabi/4.9.3/../../../../arm-none-eabi/lib/libcr_c.a(_frexpl.o)
                0x00046dfc                _frexpl
 .text          0x00046eac        0x0 /usr/local/lpcxpresso_7.8.0_426/lpcxpresso/tools/bin/../lib/gcc/arm-none-eabi/4.9.3/../../../../arm-none-eabi/lib/libcr_c.a(_hugeval.o)
 .text          0x00046eac        0x0 /usr/local/lpcxpresso_7.8.0_426/lpcxpresso/tools/bin/../lib/gcc/arm-none-eabi/4.9.3/../../../../arm-none-eabi/lib/libcr_c.a(_ldexpl.o)
 .text._ldexpl  0x00046eac       0x90 /usr/local/lpcxpresso_7.8.0_426/lpcxpresso/tools/bin/../lib/gcc/arm-none-eabi/4.9.3/../../../../arm-none-eabi/lib/libcr_c.a(_ldexpl.o)
                0x00046eac                _ldexpl
 .text          0x00046f3c        0x0 /usr/local/lpcxpresso_7.8.0_426/lpcxpresso/tools/bin/../lib/gcc/arm-none-eabi/4.9.3/../../../../arm-none-eabi/lib/libcr_c.a(_writebuf.o)
 .text._Cwritebuf
                0x00046f3c       0xa8 /usr/local/lpcxpresso_7.8.0_426/lpcxpresso/tools/bin/../lib/gcc/arm-none-eabi/4.9.3/../../../../arm-none-eabi/lib/libcr_c.a(_writebuf.o)
                0x00046f3c                _Cwritebuf
 .text          0x00046fe4        0x0 /usr/local/lpcxpresso_7.8.0_426/lpcxpresso/tools/bin/../lib/gcc/arm-none-eabi/4.9.3/../../../../arm-none-eabi/lib/libcr_c.a(errno.o)
 .text          0x00046fe4        0x0 /usr/local/lpcxpresso_7.8.0_426/lpcxpresso/tools/bin/../lib/gcc/arm-none-eabi/4.9.3/../../../../arm-none-eabi/lib/libcr_c.a(fseek.o)
 .text.fseek    0x00046fe4      0x194 /usr/local/lpcxpresso_7.8.0_426/lpcxpresso/tools/bin/../lib/gcc/arm-none-eabi/4.9.3/../../../../arm-none-eabi/lib/libcr_c.a(fseek.o)
                0x00046fe4                fseek
 .text          0x00047178        0x0 /usr/local/lpcxpresso_7.8.0_426/lpcxpresso/tools/bin/../lib/gcc/arm-none-eabi/4.9.3/../../../../arm-none-eabi/lib/libcr_c.a(ftell.o)
 .text.ftell    0x00047178       0x7c /usr/local/lpcxpresso_7.8.0_426/lpcxpresso/tools/bin/../lib/gcc/arm-none-eabi/4.9.3/../../../../arm-none-eabi/lib/libcr_c.a(ftell.o)
                0x00047178                ftell
 .text          0x000471f4        0x0 /usr/local/lpcxpresso_7.8.0_426/lpcxpresso/tools/bin/../lib/gcc/arm-none-eabi/4.9.3/../../../../arm-none-eabi/lib/libcr_c.a(initio.o)
 .text._initio  0x000471f4       0xe0 /usr/local/lpcxpresso_7.8.0_426/lpcxpresso/tools/bin/../lib/gcc/arm-none-eabi/4.9.3/../../../../arm-none-eabi/lib/libcr_c.a(initio.o)
                0x000471f4                _initio
 .text._terminateio
                0x000472d4       0x5c /usr/local/lpcxpresso_7.8.0_426/lpcxpresso/tools/bin/../lib/gcc/arm-none-eabi/4.9.3/../../../../arm-none-eabi/lib/libcr_c.a(initio.o)
                0x000472d4                _terminateio
 .text          0x00047330        0x0 /usr/local/lpcxpresso_7.8.0_426/lpcxpresso/tools/bin/../lib/gcc/arm-none-eabi/4.9.3/../../../../arm-none-eabi/lib/libcr_c.a(raise.o)
 .text.raise    0x00047330        0x8 /usr/local/lpcxpresso_7.8.0_426/lpcxpresso/tools/bin/../lib/gcc/arm-none-eabi/4.9.3/../../../../arm-none-eabi/lib/libcr_c.a(raise.o)
                0x00047330                raise
 .text          0x00047338        0x0 /usr/local/lpcxpresso_7.8.0_426/lpcxpresso/tools/bin/../lib/gcc/arm-none-eabi/4.9.3/../../../../arm-none-eabi/lib/libcr_c.a(setvbuf.o)
 .text.setvbuf  0x00047338       0x74 /usr/local/lpcxpresso_7.8.0_426/lpcxpresso/tools/bin/../lib/gcc/arm-none-eabi/4.9.3/../../../../arm-none-eabi/lib/libcr_c.a(setvbuf.o)
                0x00047338                setvbuf
 .text          0x000473ac        0x0 /usr/local/lpcxpresso_7.8.0_426/lpcxpresso/tools/bin/../lib/gcc/arm-none-eabi/4.9.3/../../../../arm-none-eabi/lib/libcr_c.a(_cr_check_heap.o)
 .text.__check_heap_overflow
                0x000473ac       0x28 /usr/local/lpcxpresso_7.8.0_426/lpcxpresso/tools/bin/../lib/gcc/arm-none-eabi/4.9.3/../../../../arm-none-eabi/lib/libcr_c.a(_cr_check_heap.o)
                0x000473ac                __check_heap_overflow
 .text          0x000473d4        0x0 /usr/local/lpcxpresso_7.8.0_426/lpcxpresso/tools/bin/../lib/gcc/arm-none-eabi/4.9.3/../../../../arm-none-eabi/lib/libcr_c.a(_fdopen.o)
 .text._fdopen  0x000473d4       0xb4 /usr/local/lpcxpresso_7.8.0_426/lpcxpresso/tools/bin/../lib/gcc/arm-none-eabi/4.9.3/../../../../arm-none-eabi/lib/libcr_c.a(_fdopen.o)
                0x000473d4                _fdopen
 .text          0x00047488        0x0 /usr/local/lpcxpresso_7.8.0_426/lpcxpresso/tools/bin/../lib/gcc/arm-none-eabi/4.9.3/../../../../arm-none-eabi/lib/libcr_c.a(fclose.o)
 .text.fclose   0x00047488       0xac /usr/local/lpcxpresso_7.8.0_426/lpcxpresso/tools/bin/../lib/gcc/arm-none-eabi/4.9.3/../../../../arm-none-eabi/lib/libcr_c.a(fclose.o)
                0x00047488                fclose
 .text          0x00047534        0x0 /usr/local/lpcxpresso_7.8.0_426/lpcxpresso/tools/bin/../lib/gcc/arm-none-eabi/4.9.3/../../../../arm-none-eabi/lib/libcr_c.a(fflush.o)
 .text.fflush   0x00047534       0x4c /usr/local/lpcxpresso_7.8.0_426/lpcxpresso/tools/bin/../lib/gcc/arm-none-eabi/4.9.3/../../../../arm-none-eabi/lib/libcr_c.a(fflush.o)
                0x00047534                fflush
 .text          0x00047580        0x0 /usr/local/lpcxpresso_7.8.0_426/lpcxpresso/tools/bin/../lib/gcc/arm-none-eabi/4.9.3/../../../../arm-none-eabi/lib/libcr_c.a(remove.o)
 .text.remove   0x00047580       0x20 /usr/local/lpcxpresso_7.8.0_426/lpcxpresso/tools/bin/../lib/gcc/arm-none-eabi/4.9.3/../../../../arm-none-eabi/lib/libcr_c.a(remove.o)
                0x00047580                remove
 .text.rename   0x000475a0       0x40 /usr/local/lpcxpresso_7.8.0_426/lpcxpresso/tools/bin/../lib/gcc/arm-none-eabi/4.9.3/../../../../arm-none-eabi/lib/libcr_c.a(remove.o)
                0x000475a0                rename
 .text          0x000475e0        0x0 /usr/local/lpcxpresso_7.8.0_426/lpcxpresso/tools/bin/../lib/gcc/arm-none-eabi/4.9.3/../../../../arm-none-eabi/lib/libcr_c.a(_do_fflush.o)
 .text._do_fflush
                0x000475e0       0x78 /usr/local/lpcxpresso_7.8.0_426/lpcxpresso/tools/bin/../lib/gcc/arm-none-eabi/4.9.3/../../../../arm-none-eabi/lib/libcr_c.a(_do_fflush.o)
                0x000475e0                _do_fflush
 .text          0x00047658        0x0 /usr/local/lpcxpresso_7.8.0_426/lpcxpresso/tools/bin/../lib/gcc/arm-none-eabi/4.9.3/libcr_eabihelpers.a(double.o)
 .text.__aeabi_dmul
                0x00047658      0x1a0 /usr/local/lpcxpresso_7.8.0_426/lpcxpresso/tools/bin/../lib/gcc/arm-none-eabi/4.9.3/libcr_eabihelpers.a(double.o)
                0x00047658                __aeabi_dmul
 .text.__aeabi_ddiv
                0x000477f8      0x1e8 /usr/local/lpcxpresso_7.8.0_426/lpcxpresso/tools/bin/../lib/gcc/arm-none-eabi/4.9.3/libcr_eabihelpers.a(double.o)
                0x000477f8                __aeabi_ddiv
 .text.__aeabi_dsub
                0x000479e0      0x270 /usr/local/lpcxpresso_7.8.0_426/lpcxpresso/tools/bin/../lib/gcc/arm-none-eabi/4.9.3/libcr_eabihelpers.a(double.o)
                0x000479e0                __aeabi_dsub
 .text.__aeabi_dadd
                0x00047c50      0x178 /usr/local/lpcxpresso_7.8.0_426/lpcxpresso/tools/bin/../lib/gcc/arm-none-eabi/4.9.3/libcr_eabihelpers.a(double.o)
                0x00047c50                __aeabi_dadd
 .text.__aeabi_drsub
                0x00047dc8       0x20 /usr/local/lpcxpresso_7.8.0_426/lpcxpresso/tools/bin/../lib/gcc/arm-none-eabi/4.9.3/libcr_eabihelpers.a(double.o)
                0x00047dc8                __aeabi_drsub
 .text.__aeabi_dneg
                0x00047de8        0xc /usr/local/lpcxpresso_7.8.0_426/lpcxpresso/tools/bin/../lib/gcc/arm-none-eabi/4.9.3/libcr_eabihelpers.a(double.o)
                0x00047de8                __aeabi_dneg
 .text.__aeabi_d2f
                0x00047df4       0x70 /usr/local/lpcxpresso_7.8.0_426/lpcxpresso/tools/bin/../lib/gcc/arm-none-eabi/4.9.3/libcr_eabihelpers.a(double.o)
                0x00047df4                __aeabi_d2f
 .text.__aeabi_d2iz
                0x00047e64       0x54 /usr/local/lpcxpresso_7.8.0_426/lpcxpresso/tools/bin/../lib/gcc/arm-none-eabi/4.9.3/libcr_eabihelpers.a(double.o)
                0x00047e64                __aeabi_d2iz
 .text.__aeabi_d2uiz
                0x00047eb8       0x40 /usr/local/lpcxpresso_7.8.0_426/lpcxpresso/tools/bin/../lib/gcc/arm-none-eabi/4.9.3/libcr_eabihelpers.a(double.o)
                0x00047eb8                __aeabi_d2uiz
 .text.__aeabi_d2lz
                0x00047ef8       0xa0 /usr/local/lpcxpresso_7.8.0_426/lpcxpresso/tools/bin/../lib/gcc/arm-none-eabi/4.9.3/libcr_eabihelpers.a(double.o)
                0x00047ef8                __aeabi_d2lz
 .text.__aeabi_d2ulz
                0x00047f98       0x68 /usr/local/lpcxpresso_7.8.0_426/lpcxpresso/tools/bin/../lib/gcc/arm-none-eabi/4.9.3/libcr_eabihelpers.a(double.o)
                0x00047f98                __aeabi_d2ulz
 .text.__bhs_ui2d
                0x00048000       0x6c /usr/local/lpcxpresso_7.8.0_426/lpcxpresso/tools/bin/../lib/gcc/arm-none-eabi/4.9.3/libcr_eabihelpers.a(double.o)
                0x00048000                __bhs_ui2d
 .text.__bhs_ul2d
                0x0004806c       0xb4 /usr/local/lpcxpresso_7.8.0_426/lpcxpresso/tools/bin/../lib/gcc/arm-none-eabi/4.9.3/libcr_eabihelpers.a(double.o)
                0x0004806c                __bhs_ul2d
 .text.__aeabi_i2d
                0x00048120       0x10 /usr/local/lpcxpresso_7.8.0_426/lpcxpresso/tools/bin/../lib/gcc/arm-none-eabi/4.9.3/libcr_eabihelpers.a(double.o)
                0x00048120                __aeabi_i2d
 .text.__aeabi_ui2d
                0x00048130        0x8 /usr/local/lpcxpresso_7.8.0_426/lpcxpresso/tools/bin/../lib/gcc/arm-none-eabi/4.9.3/libcr_eabihelpers.a(double.o)
                0x00048130                __aeabi_ui2d
 .text.__aeabi_l2d
                0x00048138       0x20 /usr/local/lpcxpresso_7.8.0_426/lpcxpresso/tools/bin/../lib/gcc/arm-none-eabi/4.9.3/libcr_eabihelpers.a(double.o)
                0x00048138                __aeabi_l2d
 .text.__aeabi_ul2d
                0x00048158        0x8 /usr/local/lpcxpresso_7.8.0_426/lpcxpresso/tools/bin/../lib/gcc/arm-none-eabi/4.9.3/libcr_eabihelpers.a(double.o)
                0x00048158                __aeabi_ul2d
 .text.__aeabi_dcmpeq
                0x00048160       0x48 /usr/local/lpcxpresso_7.8.0_426/lpcxpresso/tools/bin/../lib/gcc/arm-none-eabi/4.9.3/libcr_eabihelpers.a(double.o)
                0x00048160                __aeabi_dcmpeq
 .text.__aeabi_dcmplt
                0x000481a8       0x94 /usr/local/lpcxpresso_7.8.0_426/lpcxpresso/tools/bin/../lib/gcc/arm-none-eabi/4.9.3/libcr_eabihelpers.a(double.o)
                0x000481a8                __aeabi_dcmplt
 .text.__aeabi_dcmpgt
                0x0004823c       0x90 /usr/local/lpcxpresso_7.8.0_426/lpcxpresso/tools/bin/../lib/gcc/arm-none-eabi/4.9.3/libcr_eabihelpers.a(double.o)
                0x0004823c                __aeabi_dcmpgt
 .text.__aeabi_dcmple
                0x000482cc       0xa8 /usr/local/lpcxpresso_7.8.0_426/lpcxpresso/tools/bin/../lib/gcc/arm-none-eabi/4.9.3/libcr_eabihelpers.a(double.o)
                0x000482cc                __aeabi_dcmple
 .text.__aeabi_dcmpge
                0x00048374       0x94 /usr/local/lpcxpresso_7.8.0_426/lpcxpresso/tools/bin/../lib/gcc/arm-none-eabi/4.9.3/libcr_eabihelpers.a(double.o)
                0x00048374                __aeabi_dcmpge
 .text.__aeabi_dcmpun
                0x00048408       0x28 /usr/local/lpcxpresso_7.8.0_426/lpcxpresso/tools/bin/../lib/gcc/arm-none-eabi/4.9.3/libcr_eabihelpers.a(double.o)
                0x00048408                __aeabi_dcmpun
 .text          0x00048430        0x0 /usr/local/lpcxpresso_7.8.0_426/lpcxpresso/tools/bin/../lib/gcc/arm-none-eabi/4.9.3/libcr_eabihelpers.a(float.o)
 .text.__aeabi_fmul
                0x00048430      0x118 /usr/local/lpcxpresso_7.8.0_426/lpcxpresso/tools/bin/../lib/gcc/arm-none-eabi/4.9.3/libcr_eabihelpers.a(float.o)
                0x00048430                __aeabi_fmul
 .text.__aeabi_fdiv
                0x00048548      0x180 /usr/local/lpcxpresso_7.8.0_426/lpcxpresso/tools/bin/../lib/gcc/arm-none-eabi/4.9.3/libcr_eabihelpers.a(float.o)
                0x00048548                __aeabi_fdiv
 .text.__aeabi_fsub
                0x000486c8      0x184 /usr/local/lpcxpresso_7.8.0_426/lpcxpresso/tools/bin/../lib/gcc/arm-none-eabi/4.9.3/libcr_eabihelpers.a(float.o)
                0x000486c8                __aeabi_fsub
 .text.__aeabi_fadd
                0x0004884c       0xf4 /usr/local/lpcxpresso_7.8.0_426/lpcxpresso/tools/bin/../lib/gcc/arm-none-eabi/4.9.3/libcr_eabihelpers.a(float.o)
                0x0004884c                __aeabi_fadd
 .text.__aeabi_frsub
                0x00048940       0x14 /usr/local/lpcxpresso_7.8.0_426/lpcxpresso/tools/bin/../lib/gcc/arm-none-eabi/4.9.3/libcr_eabihelpers.a(float.o)
                0x00048940                __aeabi_frsub
 .text.__aeabi_fneg
                0x00048954        0x8 /usr/local/lpcxpresso_7.8.0_426/lpcxpresso/tools/bin/../lib/gcc/arm-none-eabi/4.9.3/libcr_eabihelpers.a(float.o)
                0x00048954                __aeabi_fneg
 .text.__aeabi_f2iz
                0x0004895c       0x48 /usr/local/lpcxpresso_7.8.0_426/lpcxpresso/tools/bin/../lib/gcc/arm-none-eabi/4.9.3/libcr_eabihelpers.a(float.o)
                0x0004895c                __aeabi_f2iz
 .text.__aeabi_f2uiz
                0x000489a4       0x34 /usr/local/lpcxpresso_7.8.0_426/lpcxpresso/tools/bin/../lib/gcc/arm-none-eabi/4.9.3/libcr_eabihelpers.a(float.o)
                0x000489a4                __aeabi_f2uiz
 .text.__aeabi_f2lz
                0x000489d8       0x7c /usr/local/lpcxpresso_7.8.0_426/lpcxpresso/tools/bin/../lib/gcc/arm-none-eabi/4.9.3/libcr_eabihelpers.a(float.o)
                0x000489d8                __aeabi_f2lz
 .text.__aeabi_f2ulz
                0x00048a54       0x58 /usr/local/lpcxpresso_7.8.0_426/lpcxpresso/tools/bin/../lib/gcc/arm-none-eabi/4.9.3/libcr_eabihelpers.a(float.o)
                0x00048a54                __aeabi_f2ulz
 .text.__bhs_ui2f
                0x00048aac       0x60 /usr/local/lpcxpresso_7.8.0_426/lpcxpresso/tools/bin/../lib/gcc/arm-none-eabi/4.9.3/libcr_eabihelpers.a(float.o)
                0x00048aac                __bhs_ui2f
 .text.__bhs_ul2f
                0x00048b0c       0x8c /usr/local/lpcxpresso_7.8.0_426/lpcxpresso/tools/bin/../lib/gcc/arm-none-eabi/4.9.3/libcr_eabihelpers.a(float.o)
                0x00048b0c                __bhs_ul2f
 .text.__aeabi_i2f
                0x00048b98       0x10 /usr/local/lpcxpresso_7.8.0_426/lpcxpresso/tools/bin/../lib/gcc/arm-none-eabi/4.9.3/libcr_eabihelpers.a(float.o)
                0x00048b98                __aeabi_i2f
 .text.__aeabi_ui2f
                0x00048ba8        0x8 /usr/local/lpcxpresso_7.8.0_426/lpcxpresso/tools/bin/../lib/gcc/arm-none-eabi/4.9.3/libcr_eabihelpers.a(float.o)
                0x00048ba8                __aeabi_ui2f
 .text.__aeabi_l2f
                0x00048bb0       0x20 /usr/local/lpcxpresso_7.8.0_426/lpcxpresso/tools/bin/../lib/gcc/arm-none-eabi/4.9.3/libcr_eabihelpers.a(float.o)
                0x00048bb0                __aeabi_l2f
 .text.__aeabi_ul2f
                0x00048bd0        0x8 /usr/local/lpcxpresso_7.8.0_426/lpcxpresso/tools/bin/../lib/gcc/arm-none-eabi/4.9.3/libcr_eabihelpers.a(float.o)
                0x00048bd0                __aeabi_ul2f
 .text.__aeabi_f2d
                0x00048bd8       0x40 /usr/local/lpcxpresso_7.8.0_426/lpcxpresso/tools/bin/../lib/gcc/arm-none-eabi/4.9.3/libcr_eabihelpers.a(float.o)
                0x00048bd8                __aeabi_f2d
 .text.__aeabi_fcmpeq
                0x00048c18       0x30 /usr/local/lpcxpresso_7.8.0_426/lpcxpresso/tools/bin/../lib/gcc/arm-none-eabi/4.9.3/libcr_eabihelpers.a(float.o)
                0x00048c18                __aeabi_fcmpeq
 .text.__aeabi_fcmplt
                0x00048c48       0x60 /usr/local/lpcxpresso_7.8.0_426/lpcxpresso/tools/bin/../lib/gcc/arm-none-eabi/4.9.3/libcr_eabihelpers.a(float.o)
                0x00048c48                __aeabi_fcmplt
 .text.__aeabi_fcmpgt
                0x00048ca8       0x5c /usr/local/lpcxpresso_7.8.0_426/lpcxpresso/tools/bin/../lib/gcc/arm-none-eabi/4.9.3/libcr_eabihelpers.a(float.o)
                0x00048ca8                __aeabi_fcmpgt
 .text.__aeabi_fcmple
                0x00048d04       0x5c /usr/local/lpcxpresso_7.8.0_426/lpcxpresso/tools/bin/../lib/gcc/arm-none-eabi/4.9.3/libcr_eabihelpers.a(float.o)
                0x00048d04                __aeabi_fcmple
 .text.__aeabi_fcmpge
                0x00048d60       0x58 /usr/local/lpcxpresso_7.8.0_426/lpcxpresso/tools/bin/../lib/gcc/arm-none-eabi/4.9.3/libcr_eabihelpers.a(float.o)
                0x00048d60                __aeabi_fcmpge
 .text.__aeabi_fcmpun
                0x00048db8       0x28 /usr/local/lpcxpresso_7.8.0_426/lpcxpresso/tools/bin/../lib/gcc/arm-none-eabi/4.9.3/libcr_eabihelpers.a(float.o)
                0x00048db8                __aeabi_fcmpun
 .text          0x00048de0       0x88 /usr/local/lpcxpresso_7.8.0_426/lpcxpresso/tools/bin/../lib/gcc/arm-none-eabi/4.9.3/libcr_eabihelpers.a(helpers.o)
                0x00048de0                __aeabi_idivmod
                0x00048dfc                __aeabi_uidivmod
                0x00048e18                __aeabi_ldivmod
                0x00048e40                __aeabi_uldivmod
 .text          0x00048e68        0x0 /usr/local/lpcxpresso_7.8.0_426/lpcxpresso/tools/bin/../lib/gcc/arm-none-eabi/4.9.3/libcr_eabihelpers.a(rtlib.o)
 .text.__aeabi_lmul
                0x00048e68       0x20 /usr/local/lpcxpresso_7.8.0_426/lpcxpresso/tools/bin/../lib/gcc/arm-none-eabi/4.9.3/libcr_eabihelpers.a(rtlib.o)
                0x00048e68                __aeabi_lmul
 .text.__aeabi_llsl
                0x00048e88       0x28 /usr/local/lpcxpresso_7.8.0_426/lpcxpresso/tools/bin/../lib/gcc/arm-none-eabi/4.9.3/libcr_eabihelpers.a(rtlib.o)
                0x00048e88                __aeabi_llsl
 .text.__aeabi_llsr
                0x00048eb0       0x24 /usr/local/lpcxpresso_7.8.0_426/lpcxpresso/tools/bin/../lib/gcc/arm-none-eabi/4.9.3/libcr_eabihelpers.a(rtlib.o)
                0x00048eb0                __aeabi_llsr
 .text.__aeabi_lasr
                0x00048ed4       0x24 /usr/local/lpcxpresso_7.8.0_426/lpcxpresso/tools/bin/../lib/gcc/arm-none-eabi/4.9.3/libcr_eabihelpers.a(rtlib.o)
                0x00048ed4                __aeabi_lasr
 .text.__aeabi_lcmp
                0x00048ef8       0x30 /usr/local/lpcxpresso_7.8.0_426/lpcxpresso/tools/bin/../lib/gcc/arm-none-eabi/4.9.3/libcr_eabihelpers.a(rtlib.o)
                0x00048ef8                __aeabi_lcmp
 .text.__aeabi_ulcmp
                0x00048f28       0x30 /usr/local/lpcxpresso_7.8.0_426/lpcxpresso/tools/bin/../lib/gcc/arm-none-eabi/4.9.3/libcr_eabihelpers.a(rtlib.o)
                0x00048f28                __aeabi_ulcmp
 .text.__aeabi_uread4
                0x00048f58       0x20 /usr/local/lpcxpresso_7.8.0_426/lpcxpresso/tools/bin/../lib/gcc/arm-none-eabi/4.9.3/libcr_eabihelpers.a(rtlib.o)
                0x00048f58                __aeabi_uread4
 .text.__aeabi_uread8
                0x00048f78       0x28 /usr/local/lpcxpresso_7.8.0_426/lpcxpresso/tools/bin/../lib/gcc/arm-none-eabi/4.9.3/libcr_eabihelpers.a(rtlib.o)
                0x00048f78                __aeabi_uread8
 .text.__aeabi_uwrite4
                0x00048fa0       0x20 /usr/local/lpcxpresso_7.8.0_426/lpcxpresso/tools/bin/../lib/gcc/arm-none-eabi/4.9.3/libcr_eabihelpers.a(rtlib.o)
                0x00048fa0                __aeabi_uwrite4
 .text.__aeabi_uwrite8
                0x00048fc0       0x34 /usr/local/lpcxpresso_7.8.0_426/lpcxpresso/tools/bin/../lib/gcc/arm-none-eabi/4.9.3/libcr_eabihelpers.a(rtlib.o)
                0x00048fc0                __aeabi_uwrite8
 .text.__aeabi_memcpy
                0x00048ff4       0x64 /usr/local/lpcxpresso_7.8.0_426/lpcxpresso/tools/bin/../lib/gcc/arm-none-eabi/4.9.3/libcr_eabihelpers.a(rtlib.o)
                0x00048ff4                __aeabi_memcpy
 .text.__aeabi_memcpy4
                0x00049058       0x58 /usr/local/lpcxpresso_7.8.0_426/lpcxpresso/tools/bin/../lib/gcc/arm-none-eabi/4.9.3/libcr_eabihelpers.a(rtlib.o)
                0x00049058                __aeabi_memcpy4
                0x00049058                __aeabi_memcpy8
 .text.__aeabi_memmove
                0x000490b0       0x58 /usr/local/lpcxpresso_7.8.0_426/lpcxpresso/tools/bin/../lib/gcc/arm-none-eabi/4.9.3/libcr_eabihelpers.a(rtlib.o)
                0x000490b0                __aeabi_memmove
 .text.__aeabi_memmove4
                0x00049108       0x58 /usr/local/lpcxpresso_7.8.0_426/lpcxpresso/tools/bin/../lib/gcc/arm-none-eabi/4.9.3/libcr_eabihelpers.a(rtlib.o)
                0x00049108                __aeabi_memmove8
                0x00049108                __aeabi_memmove4
 .text.__aeabi_memset
                0x00049160       0x54 /usr/local/lpcxpresso_7.8.0_426/lpcxpresso/tools/bin/../lib/gcc/arm-none-eabi/4.9.3/libcr_eabihelpers.a(rtlib.o)
                0x00049160                __aeabi_memset
 .text.__aeabi_memset4
                0x000491b4       0x4c /usr/local/lpcxpresso_7.8.0_426/lpcxpresso/tools/bin/../lib/gcc/arm-none-eabi/4.9.3/libcr_eabihelpers.a(rtlib.o)
                0x000491b4                __aeabi_memset8
                0x000491b4                __aeabi_memset4
 .text.__aeabi_memclr
                0x00049200       0x50 /usr/local/lpcxpresso_7.8.0_426/lpcxpresso/tools/bin/../lib/gcc/arm-none-eabi/4.9.3/libcr_eabihelpers.a(rtlib.o)
                0x00049200                __aeabi_memclr
 .text.__aeabi_memclr4
                0x00049250       0x48 /usr/local/lpcxpresso_7.8.0_426/lpcxpresso/tools/bin/../lib/gcc/arm-none-eabi/4.9.3/libcr_eabihelpers.a(rtlib.o)
                0x00049250                __aeabi_memclr8
                0x00049250                __aeabi_memclr4
 .text.__aeabi_idiv0
                0x00049298        0x4 /usr/local/lpcxpresso_7.8.0_426/lpcxpresso/tools/bin/../lib/gcc/arm-none-eabi/4.9.3/libcr_eabihelpers.a(rtlib.o)
                0x00049298                __aeabi_idiv0
 .text.__bhs_uidivmod
                0x0004929c       0x9c /usr/local/lpcxpresso_7.8.0_426/lpcxpresso/tools/bin/../lib/gcc/arm-none-eabi/4.9.3/libcr_eabihelpers.a(rtlib.o)
                0x0004929c                __bhs_uidivmod
 .text.__bhs_idivmod
                0x00049338       0x50 /usr/local/lpcxpresso_7.8.0_426/lpcxpresso/tools/bin/../lib/gcc/arm-none-eabi/4.9.3/libcr_eabihelpers.a(rtlib.o)
                0x00049338                __bhs_idivmod
 .text.__aeabi_uidiv
                0x00049388       0x28 /usr/local/lpcxpresso_7.8.0_426/lpcxpresso/tools/bin/../lib/gcc/arm-none-eabi/4.9.3/libcr_eabihelpers.a(rtlib.o)
                0x00049388                __aeabi_uidiv
 .text.__aeabi_idiv
                0x000493b0       0x3c /usr/local/lpcxpresso_7.8.0_426/lpcxpresso/tools/bin/../lib/gcc/arm-none-eabi/4.9.3/libcr_eabihelpers.a(rtlib.o)
                0x000493b0                __aeabi_idiv
 .text.__aeabi_ldiv0
                0x000493ec        0x4 /usr/local/lpcxpresso_7.8.0_426/lpcxpresso/tools/bin/../lib/gcc/arm-none-eabi/4.9.3/libcr_eabihelpers.a(rtlib.o)
                0x000493ec                __aeabi_ldiv0
 .text.__bhs_uldivmod
                0x000493f0      0x164 /usr/local/lpcxpresso_7.8.0_426/lpcxpresso/tools/bin/../lib/gcc/arm-none-eabi/4.9.3/libcr_eabihelpers.a(rtlib.o)
                0x000493f0                __bhs_uldivmod
 .text.__bhs_ldivmod
                0x00049554       0xac /usr/local/lpcxpresso_7.8.0_426/lpcxpresso/tools/bin/../lib/gcc/arm-none-eabi/4.9.3/libcr_eabihelpers.a(rtlib.o)
                0x00049554                __bhs_ldivmod
 .text          0x00049600        0x0 /usr/local/lpcxpresso_7.8.0_426/lpcxpresso/tools/bin/../lib/gcc/arm-none-eabi/4.9.3/../../../../arm-none-eabi/lib/libcr_nohost.a(__sys_appexit.o)
 .text.__sys_appexit
                0x00049600        0x4 /usr/local/lpcxpresso_7.8.0_426/lpcxpresso/tools/bin/../lib/gcc/arm-none-eabi/4.9.3/../../../../arm-none-eabi/lib/libcr_nohost.a(__sys_appexit.o)
                0x00049600                __exit
                0x00049600                __sys_appexit
 .text          0x00049604        0x0 /usr/local/lpcxpresso_7.8.0_426/lpcxpresso/tools/bin/../lib/gcc/arm-none-eabi/4.9.3/../../../../arm-none-eabi/lib/libcr_nohost.a(__sys_close.o)
 .text.__sys_close
                0x00049604        0x8 /usr/local/lpcxpresso_7.8.0_426/lpcxpresso/tools/bin/../lib/gcc/arm-none-eabi/4.9.3/../../../../arm-none-eabi/lib/libcr_nohost.a(__sys_close.o)
                0x00049604                __sys_close
 .text          0x0004960c        0x0 /usr/local/lpcxpresso_7.8.0_426/lpcxpresso/tools/bin/../lib/gcc/arm-none-eabi/4.9.3/../../../../arm-none-eabi/lib/libcr_nohost.a(__sys_flen.o)
 .text.__sys_flen
                0x0004960c        0x8 /usr/local/lpcxpresso_7.8.0_426/lpcxpresso/tools/bin/../lib/gcc/arm-none-eabi/4.9.3/../../../../arm-none-eabi/lib/libcr_nohost.a(__sys_flen.o)
                0x0004960c                __sys_flen
 .text          0x00049614        0x0 /usr/local/lpcxpresso_7.8.0_426/lpcxpresso/tools/bin/../lib/gcc/arm-none-eabi/4.9.3/../../../../arm-none-eabi/lib/libcr_nohost.a(__sys_istty.o)
 .text.__sys_istty
                0x00049614        0x8 /usr/local/lpcxpresso_7.8.0_426/lpcxpresso/tools/bin/../lib/gcc/arm-none-eabi/4.9.3/../../../../arm-none-eabi/lib/libcr_nohost.a(__sys_istty.o)
                0x00049614                __sys_istty
 .text          0x0004961c        0x0 /usr/local/lpcxpresso_7.8.0_426/lpcxpresso/tools/bin/../lib/gcc/arm-none-eabi/4.9.3/../../../../arm-none-eabi/lib/libcr_nohost.a(__sys_read.o)
 .text.__sys_read
                0x0004961c        0x8 /usr/local/lpcxpresso_7.8.0_426/lpcxpresso/tools/bin/../lib/gcc/arm-none-eabi/4.9.3/../../../../arm-none-eabi/lib/libcr_nohost.a(__sys_read.o)
                0x0004961c                __sys_read
 .text          0x00049624        0x0 /usr/local/lpcxpresso_7.8.0_426/lpcxpresso/tools/bin/../lib/gcc/arm-none-eabi/4.9.3/../../../../arm-none-eabi/lib/libcr_nohost.a(__sys_readc.o)
 .text.__sys_readc
                0x00049624        0x8 /usr/local/lpcxpresso_7.8.0_426/lpcxpresso/tools/bin/../lib/gcc/arm-none-eabi/4.9.3/../../../../arm-none-eabi/lib/libcr_nohost.a(__sys_readc.o)
                0x00049624                __readc
                0x00049624                __sys_readc
 .text          0x0004962c        0x0 /usr/local/lpcxpresso_7.8.0_426/lpcxpresso/tools/bin/../lib/gcc/arm-none-eabi/4.9.3/../../../../arm-none-eabi/lib/libcr_nohost.a(__sys_remove.o)
 .text.__sys_remove
                0x0004962c        0x8 /usr/local/lpcxpresso_7.8.0_426/lpcxpresso/tools/bin/../lib/gcc/arm-none-eabi/4.9.3/../../../../arm-none-eabi/lib/libcr_nohost.a(__sys_remove.o)
                0x0004962c                __sys_remove
 .text          0x00049634        0x0 /usr/local/lpcxpresso_7.8.0_426/lpcxpresso/tools/bin/../lib/gcc/arm-none-eabi/4.9.3/../../../../arm-none-eabi/lib/libcr_nohost.a(__sys_rename.o)
 .text.__sys_rename
                0x00049634        0x8 /usr/local/lpcxpresso_7.8.0_426/lpcxpresso/tools/bin/../lib/gcc/arm-none-eabi/4.9.3/../../../../arm-none-eabi/lib/libcr_nohost.a(__sys_rename.o)
                0x00049634                __sys_rename
 .text          0x0004963c        0x0 /usr/local/lpcxpresso_7.8.0_426/lpcxpresso/tools/bin/../lib/gcc/arm-none-eabi/4.9.3/../../../../arm-none-eabi/lib/libcr_nohost.a(__sys_seek.o)
 .text.__sys_seek
                0x0004963c        0x8 /usr/local/lpcxpresso_7.8.0_426/lpcxpresso/tools/bin/../lib/gcc/arm-none-eabi/4.9.3/../../../../arm-none-eabi/lib/libcr_nohost.a(__sys_seek.o)
                0x0004963c                __sys_seek
 .text          0x00049644        0x0 /usr/local/lpcxpresso_7.8.0_426/lpcxpresso/tools/bin/../lib/gcc/arm-none-eabi/4.9.3/../../../../arm-none-eabi/lib/libcr_nohost.a(__sys_tmpnam.o)
 .text.__sys_tmpnam
                0x00049644        0x8 /usr/local/lpcxpresso_7.8.0_426/lpcxpresso/tools/bin/../lib/gcc/arm-none-eabi/4.9.3/../../../../arm-none-eabi/lib/libcr_nohost.a(__sys_tmpnam.o)
                0x00049644                __sys_tmpnam
 .text          0x0004964c        0x0 /usr/local/lpcxpresso_7.8.0_426/lpcxpresso/tools/bin/../lib/gcc/arm-none-eabi/4.9.3/../../../../arm-none-eabi/lib/libcr_nohost.a(__sys_write.o)
 .text.__sys_write
                0x0004964c        0x8 /usr/local/lpcxpresso_7.8.0_426/lpcxpresso/tools/bin/../lib/gcc/arm-none-eabi/4.9.3/../../../../arm-none-eabi/lib/libcr_nohost.a(__sys_write.o)
                0x0004964c                __write
                0x0004964c                __sys_write
 *(.rodata .rodata.* .constdata .constdata.*)
 .rodata.hma_pars
                0x00049654       0x18 ./src/Anybus.o
                0x00049654                hma_pars
 .rodata.str1.1
                0x0004966c      0x32f ./src/Anybus.o
                                0x34b (size before relaxing)
 .rodata.abCrcLo.7605
                0x0004999b      0x100 ./src/Anybus.o
 .rodata.abCrcHi.7604
                0x00049a9b      0x100 ./src/Anybus.o
 *fill*         0x00049b9b        0x1 
 .rodata.anybus_ApplParams
                0x00049b9c      0xc80 ./src/Anybus.o
                0x00049b9c                anybus_ApplParams
 .rodata.str1.1
                0x0004a81c      0x113 ./src/az4186_can.o
 *fill*         0x0004a92f        0x1 
 .rodata.ui_dac_values
                0x0004a930       0x14 ./src/az4186_dac.o
 .rodata.str1.1
                0x0004a944       0x1b ./src/az4186_eeprom_24c04.o
 *fill*         0x0004a95f        0x1 
 .rodata.eeprom_data_info
                0x0004a960       0x30 ./src/az4186_eeprom_24c04.o
                0x0004a960                eeprom_data_info
 .rodata.str1.1
                0x0004a990       0x7a ./src/az4186_emc.o
 .rodata.str1.1
                0x0004aa0a       0x95 ./src/az4186_files.o
 .rodata.str1.1
                0x0004aa9f       0xd0 ./src/az4186_program_codes.o
 *fill*         0x0004ab6f        0x1 
 .rodata.pc_codes.6725
                0x0004ab70       0x10 ./src/az4186_program_codes.o
 .rodata.str1.1
                0x0004ab80       0x26 ./src/az4186_window_temperature_compensation.o
                                 0x2d (size before relaxing)
 *fill*         0x0004aba6        0x2 
 .rodata.if_TCP
                0x0004aba8      0x140 ./src/az4186_window_temperature_compensation.o
                0x0004aba8                if_TCP
 .rodata.str1.1
                0x0004ace8     0x20ad ./src/codelist.o
                               0x2122 (size before relaxing)
 *fill*         0x0004cd95        0x3 
 .rodata.ui_file_list_mark_body_free
                0x0004cd98        0x4 ./src/file_list.o
 .rodata.str1.1
                0x0004cd9c       0x2c ./src/file_list.o
 .rodata.ui_file_list_mark_body_busy
                0x0004cdc8        0x4 ./src/file_list.o
 .rodata.lcdCalDefault
                0x0004cdcc      0x1a8 ./src/gui.o
                0x0004cdcc                lcdCalDefault
 .rodata.uiButtonNumRepetitionsX
                0x0004cf74        0xc ./src/gui.o
                0x0004cf74                uiButtonNumRepetitionsX
 .rodata.uiButtonBitmapAddress
                0x0004cf80        0x4 ./src/gui.o
                0x0004cf80                uiButtonBitmapAddress
 .rodata.ucSizeYkbd
                0x0004cf84       0x18 ./src/gui.o
                0x0004cf84                ucSizeYkbd
 .rodata.str1.1
                0x0004cf9c       0x1d ./src/gui.o
 .rodata.ucRadiusXok_kbd
                0x0004cfb9       0x18 ./src/gui.o
                0x0004cfb9                ucRadiusXok_kbd
 .rodata.ucTableCharsKbd
                0x0004cfd1       0x78 ./src/gui.o
                0x0004cfd1                ucTableCharsKbd
 *fill*         0x0004d049        0x3 
 .rodata.uiButtonAddress
                0x0004d04c       0x28 ./src/gui.o
                0x0004d04c                uiButtonAddress
 .rodata.ucRadiusYok_kbd
                0x0004d074       0x18 ./src/gui.o
                0x0004d074                ucRadiusYok_kbd
 .rodata.ucTableKeysKbd
                0x0004d08c       0x18 ./src/gui.o
                0x0004d08c                ucTableKeysKbd
 .rodata.ucSizeXkbd
                0x0004d0a4       0x18 ./src/gui.o
                0x0004d0a4                ucSizeXkbd
 .rodata.uiButtonNumBitmapX
                0x0004d0bc       0x28 ./src/gui.o
                0x0004d0bc                uiButtonNumBitmapX
 .rodata.sel2.3641
                0x0004d0e4       0x10 ./src/inverse_v1.o
 .rodata.sel1.3640
                0x0004d0f4       0x10 ./src/inverse_v1.o
 .rodata.sel0.3639
                0x0004d104       0x10 ./src/inverse_v1.o
 .rodata.ucMappaCaratteriSpeciali
                0x0004d114      0x100 ./src/lcd.o
                0x0004d114                ucMappaCaratteriSpeciali
 .rodata.rtcNumK.8051
                0x0004d214       0xc0 ./src/params.o
 .rodata.formatoParMac
                0x0004d2d4      0xa64 ./src/params.o
                0x0004d2d4                formatoParMac
 .rodata.str1.1
                0x0004dd38      0x23e ./src/params.o
                                0x279 (size before relaxing)
 .rodata.ucLivingSaveParamsChars
                0x0004df76        0x4 ./src/params.o
 .rodata.str1.1
                0x0004df7a      0x130 ./src/popup.o
                                0x148 (size before relaxing)
 .rodata.ucLivingCodes.7087
                0x0004e0aa        0x6 ./src/popup.o
 .rodata.str1.1
                0x0004e0b0      0x133 ./src/spi.o
                                0x145 (size before relaxing)
 *fill*         0x0004e1e3        0x1 
 .rodata.CSWTCH.184
                0x0004e1e4        0x6 ./src/spi.o
 .rodata.CSWTCH.185
                0x0004e1ea        0x8 ./src/spi.o
 *fill*         0x0004e1f2        0x2 
 .rodata.smartMenu
                0x0004e1f4      0x168 ./src/spi.o
                0x0004e1f4                smartMenu
 .rodata.scegliStringa
                0x0004e35c       0x90 ./src/spidbg.o
                0x0004e35c                scegliStringa
 .rodata.im_setup_prod
                0x0004e3ec      0x108 ./src/spidbg.o
                0x0004e3ec                im_setup_prod
 .rodata.if_VCP
                0x0004e4f4       0x80 ./src/spidbg.o
                0x0004e4f4                if_VCP
 .rodata.im_ohm_resistenza_taratura
                0x0004e574      0x138 ./src/spidbg.o
                0x0004e574                im_ohm_resistenza_taratura
 .rodata.ucSuperUserPasswordRequired
                0x0004e6ac       0x23 ./src/spidbg.o
                0x0004e6ac                ucSuperUserPasswordRequired
 .rodata.str1.1
                0x0004e6cf      0x1ff ./src/spidbg.o
                                0x27c (size before relaxing)
 .rodata.ucStringNamesOutAnalogici
                0x0004e8ce       0xa0 ./src/spidbg.o
                0x0004e8ce                ucStringNamesOutAnalogici
 *fill*         0x0004e96e        0x2 
 .rodata.if_FORN
                0x0004e970       0x40 ./src/spidbg.o
                0x0004e970                if_FORN
 .rodata.ucStringNamesInAnalogici
                0x0004e9b0       0xa0 ./src/spidbg.o
                0x0004e9b0                ucStringNamesInAnalogici
 .rodata.if_PM  0x0004ea50      0x8c0 ./src/spidbg.o
                0x0004ea50                if_PM
 .rodata.ucNomiButtonsUtilities
                0x0004f310       0x3c ./src/spidbg.o
                0x0004f310                ucNomiButtonsUtilities
 .rodata.rangeAD7327
                0x0004f34c       0x40 ./src/spimis.o
                0x0004f34c                rangeAD7327
 .rodata.ucTableADch2ADmeas
                0x0004f38c        0x8 ./src/spimis.o
                0x0004f38c                ucTableADch2ADmeas
 .rodata.rangesADmeasure
                0x0004f394        0x8 ./src/spimis.o
                0x0004f394                rangesADmeasure
 .rodata.ucTableADmeas2ADch
                0x0004f39c        0x8 ./src/spimis.o
                0x0004f39c                ucTableADmeas2ADch
 .rodata.tableUm
                0x0004f3a4      0x14a ./src/spiutils.o
                0x0004f3a4                tableUm
 .rodata.uc_LengthCopy
                0x0004f4ee        0x5 ./src/spiutils.o
                0x0004f4ee                uc_LengthCopy
 .rodata.str1.1
                0x0004f4f3       0x9e ./src/spiutils.o
                                 0xc3 (size before relaxing)
 *fill*         0x0004f591        0x3 
 .rodata.ifc    0x0004f594      0x1b8 ./src/spiutils.o
                0x0004f594                ifc
 .rodata.numk_buttons_T9.7279
                0x0004f74c      0x240 ./src/spiutils.o
 .rodata.numk_buttons.7278
                0x0004f98c      0x240 ./src/spiutils.o
 .rodata.uc_StartCopy
                0x0004fbcc        0x5 ./src/spiutils.o
                0x0004fbcc                uc_StartCopy
 .rodata.ucCodes_T9
                0x0004fbd1       0x42 ./src/spiutils.o
                0x0004fbd1                ucCodes_T9
 *fill*         0x0004fc13        0x1 
 .rodata.iml    0x0004fc14      0x160 ./src/spiwin2.o
                0x0004fc14                iml
 .rodata.im_lottorapido
                0x0004fd74      0x210 ./src/spiwin2.o
                0x0004fd74                im_lottorapido
 .rodata.im_ohmm_fili
                0x0004ff84      0x108 ./src/spiwin2.o
                0x0004ff84                im_ohmm_fili
 .rodata.str1.1
                0x0005008c      0x157 ./src/spiwin2.o
                                0x1e9 (size before relaxing)
 *fill*         0x000501e3        0x1 
 .rodata.if_APP
                0x000501e4      0x240 ./src/spiwin2.o
                0x000501e4                if_APP
 .rodata.if_CALSENS
                0x00050424      0x140 ./src/spiwin2.o
                0x00050424                if_CALSENS
 .rodata.uiNomiButtonsAltriParsProd
                0x00050564       0x24 ./src/spiwin2.o
                0x00050564                uiNomiButtonsAltriParsProd
 .rodata.str1.1
                0x00050588       0x14 ./src/vdip.o
                                 0x18 (size before relaxing)
 .rodata.Tbl    0x0005059c      0x100 ./ff9/src/option/ccsbcs.o
 .rodata.tbl_lower.3826
                0x0005069c      0x1e0 ./ff9/src/option/ccsbcs.o
 .rodata.tbl_upper.3827
                0x0005087c      0x1e0 ./ff9/src/option/ccsbcs.o
 .rodata.vst.4405
                0x00050a5c       0x16 ./ff9/src/ff.o
 .rodata.excvt.4111
                0x00050a72       0x80 ./ff9/src/ff.o
 .rodata.str1.1
                0x00050af2       0x44 ./ff9/src/ff.o
 .rodata.cst.4406
                0x00050b36       0x16 ./ff9/src/ff.o
 .rodata.LfnOfs
                0x00050b4c        0xd ./ff9/src/ff.o
 *fill*         0x00050b59        0x3 
 .rodata.ODrecord2120
                0x00050b5c       0x28 ./CANopen_stack/LPC2388/co_od.o
                0x00050b5c                ODrecord2120
 .rodata.ODrecord1400
                0x00050b84       0x18 ./CANopen_stack/LPC2388/co_od.o
                0x00050b84                ODrecord1400
 .rodata.ODrecord1401
                0x00050b9c       0x18 ./CANopen_stack/LPC2388/co_od.o
                0x00050b9c                ODrecord1401
 .rodata.ODrecord1402
                0x00050bb4       0x18 ./CANopen_stack/LPC2388/co_od.o
                0x00050bb4                ODrecord1402
 .rodata.ODrecord1403
                0x00050bcc       0x18 ./CANopen_stack/LPC2388/co_od.o
                0x00050bcc                ODrecord1403
 .rodata.ODrecord1018
                0x00050be4       0x28 ./CANopen_stack/LPC2388/co_od.o
                0x00050be4                ODrecord1018
 .rodata.ODrecord1800
                0x00050c0c       0x38 ./CANopen_stack/LPC2388/co_od.o
                0x00050c0c                ODrecord1800
 .rodata.ODrecord1801
                0x00050c44       0x38 ./CANopen_stack/LPC2388/co_od.o
                0x00050c44                ODrecord1801
 .rodata.ODrecord1802
                0x00050c7c       0x38 ./CANopen_stack/LPC2388/co_od.o
                0x00050c7c                ODrecord1802
 .rodata.ODrecord1803
                0x00050cb4       0x38 ./CANopen_stack/LPC2388/co_od.o
                0x00050cb4                ODrecord1803
 .rodata.ODrecord1280
                0x00050cec       0x20 ./CANopen_stack/LPC2388/co_od.o
                0x00050cec                ODrecord1280
 .rodata.ODrecord1200
                0x00050d0c       0x18 ./CANopen_stack/LPC2388/co_od.o
                0x00050d0c                ODrecord1200
 .rodata.CO_OD  0x00050d24      0x380 ./CANopen_stack/LPC2388/co_od.o
                0x00050d24                CO_OD
 .rodata.ODrecord1A00
                0x000510a4       0x48 ./CANopen_stack/LPC2388/co_od.o
                0x000510a4                ODrecord1A00
 .rodata.ODrecord1A01
                0x000510ec       0x48 ./CANopen_stack/LPC2388/co_od.o
                0x000510ec                ODrecord1A01
 .rodata.ODrecord1A02
                0x00051134       0x48 ./CANopen_stack/LPC2388/co_od.o
                0x00051134                ODrecord1A02
 .rodata.ODrecord1A03
                0x0005117c       0x48 ./CANopen_stack/LPC2388/co_od.o
                0x0005117c                ODrecord1A03
 .rodata.ODrecord1601
                0x000511c4       0x48 ./CANopen_stack/LPC2388/co_od.o
                0x000511c4                ODrecord1601
 .rodata.ODrecord1602
                0x0005120c       0x48 ./CANopen_stack/LPC2388/co_od.o
                0x0005120c                ODrecord1602
 .rodata.ODrecord1603
                0x00051254       0x48 ./CANopen_stack/LPC2388/co_od.o
                0x00051254                ODrecord1603
 .rodata.ODrecord1600
                0x0005129c       0x48 ./CANopen_stack/LPC2388/co_od.o
                0x0005129c                ODrecord1600
 .rodata.str1.1
                0x000512e4       0x18 /usr/local/lpcxpresso_7.8.0_426/lpcxpresso/tools/bin/../lib/gcc/arm-none-eabi/4.9.3/../../../../arm-none-eabi/lib/libcr_c.a(alloc.o)
 .rodata.__ctype
                0x000512fc      0x180 /usr/local/lpcxpresso_7.8.0_426/lpcxpresso/tools/bin/../lib/gcc/arm-none-eabi/4.9.3/../../../../arm-none-eabi/lib/libcr_c.a(ctype.o)
                0x000512fc                __ctype
 .rodata.str1.1
                0x0005147c       0x2e /usr/local/lpcxpresso_7.8.0_426/lpcxpresso/tools/bin/../lib/gcc/arm-none-eabi/4.9.3/../../../../arm-none-eabi/lib/libcr_c.a(fpprintf.o)
                                 0x35 (size before relaxing)
 .rodata.str1.1
                0x000514aa       0x2f /usr/local/lpcxpresso_7.8.0_426/lpcxpresso/tools/bin/../lib/gcc/arm-none-eabi/4.9.3/../../../../arm-none-eabi/lib/libcr_c.a(printf.o)
                                 0x38 (size before relaxing)
 .rodata.str1.1
                0x000514d9        0x6 /usr/local/lpcxpresso_7.8.0_426/lpcxpresso/tools/bin/../lib/gcc/arm-none-eabi/4.9.3/../../../../arm-none-eabi/lib/libcr_c.a(scanf.o)
 *fill*         0x000514df        0x1 
 .rodata.__huge_val
                0x000514e0        0x8 /usr/local/lpcxpresso_7.8.0_426/lpcxpresso/tools/bin/../lib/gcc/arm-none-eabi/4.9.3/../../../../arm-none-eabi/lib/libcr_c.a(_hugeval.o)
                0x000514e0                __huge_val
 .rodata.__huge_vall
                0x000514e8        0x8 /usr/local/lpcxpresso_7.8.0_426/lpcxpresso/tools/bin/../lib/gcc/arm-none-eabi/4.9.3/../../../../arm-none-eabi/lib/libcr_c.a(_hugeval.o)
                0x000514e8                __huge_vall
 .rodata.str1.1
                0x000514f0        0x2 /usr/local/lpcxpresso_7.8.0_426/lpcxpresso/tools/bin/../lib/gcc/arm-none-eabi/4.9.3/../../../../arm-none-eabi/lib/libcr_c.a(initio.o)
                                  0x4 (size before relaxing)
                0x000514f4                . = ALIGN (0x4)
 *fill*         0x000514f2        0x2 

.crp            0x000514f4        0x4
 .crp           0x000514f4        0x4 ./src/crp.o
                0x000514f4                CRP_WORD

.glue_7         0x000514f8        0x0
 .glue_7        0x00000000        0x0 linker stubs

.glue_7t        0x000514f8        0x0
 .glue_7t       0x00000000        0x0 linker stubs

.vfp11_veneer   0x000514f8        0x0
 .vfp11_veneer  0x00000000        0x0 linker stubs

.v4_bx          0x000514f8        0x0
 .v4_bx         0x00000000        0x0 linker stubs

.iplt           0x000514f8        0x0
 .iplt          0x00000000        0x0 ./src/Anybus.o

.rel.dyn        0x000514f8        0x0
 .rel.iplt      0x00000000        0x0 ./src/Anybus.o

.ARM.extab
 *(.ARM.extab* .gnu.linkonce.armextab.*)
                0x000514f8                __exidx_start = .

.ARM.exidx
 *(.ARM.exidx* .gnu.linkonce.armexidx.*)
                0x000514f8                __exidx_end = .
                0x000514f8                _etext = .
                0x000514f8                _sidata = _etext

.data_RAM2      0x7fe00000        0x0 load address 0x000514f8
 FILL mask 0xff
                0x7fe00000                PROVIDE (__start_data_RAM2, .)
 *(.ramfunc.$RAM2)
 *(.ramfunc.$RAM_ETH_16)
 *(.data.$RAM2*)
 *(.data.$RAM_ETH_16*)
                0x7fe00000                . = ALIGN (0x4)
                0x7fe00000                PROVIDE (__end_data_RAM2, .)

.data_RAM3      0x7fd00000        0x0 load address 0x000514f8
 FILL mask 0xff
                0x7fd00000                PROVIDE (__start_data_RAM3, .)
 *(.ramfunc.$RAM3)
 *(.ramfunc.$RAM_USB_16)
 *(.data.$RAM3*)
 *(.data.$RAM_USB_16*)
                0x7fd00000                . = ALIGN (0x4)
                0x7fd00000                PROVIDE (__end_data_RAM3, .)

.data_RAM4      0xe0084000        0x0 load address 0x000514f8
 FILL mask 0xff
                0xe0084000                PROVIDE (__start_data_RAM4, .)
 *(.ramfunc.$RAM4)
 *(.ramfunc.$RAM_RTC_2)
 *(.data.$RAM4*)
 *(.data.$RAM_RTC_2*)
                0xe0084000                . = ALIGN (0x4)
                0xe0084000                PROVIDE (__end_data_RAM4, .)

.uninit_RESERVED
                0x40000000        0x0
 *(.bss.$RESERVED*)
                0x40000000                . = ALIGN (0x4)
                0x40000000                _end_uninit_RESERVED = .

.data           0x40000000      0xed0 load address 0x000514f8
                0x40000000                . = ALIGN (0x4)
 FILL mask 0xff
                0x40000000                _data = .
                0x40000000                _sdata = .
 *(vtable)
 *(.ramfunc*)
 *(.data*)
 .data          0x40000000        0x0 ./src/Anybus.o
 .data          0x40000000        0x0 ./src/I2C_Master.o
 .data          0x40000000        0x0 ./src/az4186_can.o
 .data.ul_can_frequency_Hz
                0x40000000       0x10 ./src/az4186_can.o
                0x40000000                ul_can_frequency_Hz
 .data          0x40000010        0x0 ./src/az4186_dac.o
 .data          0x40000010        0x0 ./src/az4186_eeprom_24c04.o
 .data          0x40000010        0x0 ./src/az4186_emc.o
 .data          0x40000010        0x0 ./src/az4186_files.o
 .data          0x40000010        0x0 ./src/az4186_initHw.o
 .data          0x40000010        0x0 ./src/az4186_program_codes.o
 .data          0x40000010        0x0 ./src/az4186_temperature_compensation.o
 .data          0x40000010        0x0 ./src/az4186_window_temperature_compensation.o
 .data          0x40000010        0x0 ./src/codelist.o
 .data.ucStringhe20char_default
                0x40000010      0x494 ./src/codelist.o
                0x40000010                ucStringhe20char_default
 .data.ucStringhe40char_english
                0x400004a4       0x38 ./src/codelist.o
                0x400004a4                ucStringhe40char_english
 .data.ucStringhe40char_default
                0x400004dc       0x38 ./src/codelist.o
                0x400004dc                ucStringhe40char_default
 .data.ucStringhe20char_english
                0x40000514      0x490 ./src/codelist.o
                0x40000514                ucStringhe20char_english
 .data          0x400009a4        0x0 ./src/crp.o
 .data          0x400009a4        0x0 ./src/diskio.o
 .data.Stat     0x400009a4        0x1 ./src/diskio.o
 .data          0x400009a5        0x0 ./src/dma.o
 .data          0x400009a5        0x0 ./src/fat_time.o
 .data          0x400009a5        0x0 ./src/file_list.o
 *fill*         0x400009a5        0x3 
 .data.list_body_to_insert
                0x400009a8       0x14 ./src/file_list.o
                0x400009a8                list_body_to_insert
 .data          0x400009bc        0x0 ./src/gui.o
 .data.stringCalibra
                0x400009bc        0x3 ./src/gui.o
 .data.ucFontSizePixelXY
                0x400009bf        0xa ./src/gui.o
                0x400009bf                ucFontSizePixelXY
 .data.stringaTestTouch
                0x400009c9        0xf ./src/gui.o
                0x400009c9                stringaTestTouch
 .data.stringButtonBitmap.7227
                0x400009d8        0x4 ./src/gui.o
 .data          0x400009dc        0x0 ./src/i2c.o
 .data          0x400009dc        0x0 ./src/inverse_v1.o
 .data          0x400009dc        0x0 ./src/lcd.o
 .data.ACK_CHAR
                0x400009dc        0x1 ./src/lcd.o
                0x400009dc                ACK_CHAR
 .data          0x400009dd        0x0 ./src/main.o
 .data          0x400009dd        0x0 ./src/mci.o
 *fill*         0x400009dd        0x3 
 .data.ReadBlock
                0x400009e0        0x4 ./src/mci.o
                0x400009e0                ReadBlock
 .data.WriteBlock
                0x400009e4        0x4 ./src/mci.o
                0x400009e4                WriteBlock
 .data          0x400009e8        0x0 ./src/params.o
 .data.fFattoreScalaHRE
                0x400009e8        0xc ./src/params.o
                0x400009e8                fFattoreScalaHRE
 .data          0x400009f4        0x0 ./src/popup.o
 .data          0x400009f4        0x0 ./src/rtcDS3231_newer.o
 .data          0x400009f4        0x0 ./src/spi.o
 .data          0x400009f4        0x0 ./src/spidbg.o
 .data.iMaxIncrementVelRuote
                0x400009f4        0x8 ./src/spidbg.o
                0x400009f4                iMaxIncrementVelRuote
 .data          0x400009fc        0x0 ./src/spiglb.o
 .data.pKbData  0x400009fc        0x4 ./src/spiglb.o
                0x400009fc                pKbData
 .data.p7segData
                0x40000a00        0x4 ./src/spiglb.o
                0x40000a00                p7segData
 .data.pADCSta  0x40000a04        0x4 ./src/spiglb.o
                0x40000a04                pADCSta
 .data.pKbEnOu  0x40000a08        0x4 ./src/spiglb.o
                0x40000a08                pKbEnOu
 .data.pADC     0x40000a0c        0x4 ./src/spiglb.o
                0x40000a0c                pADC
 .data.mmRuotaAvv
                0x40000a10        0x4 ./src/spiglb.o
                0x40000a10                mmRuotaAvv
 .data.p7segPoint
                0x40000a14        0x4 ./src/spiglb.o
                0x40000a14                p7segPoint
 .data.pInpDig  0x40000a18        0x4 ./src/spiglb.o
                0x40000a18                pInpDig
 .data.pADCDin  0x40000a1c        0x4 ./src/spiglb.o
                0x40000a1c                pADCDin
 .data.pDACPort
                0x40000a20        0x4 ./src/spiglb.o
                0x40000a20                pDACPort
 .data.P1       0x40000a24        0x1 ./src/spiglb.o
                0x40000a24                P1
 *fill*         0x40000a25        0x1 
 .data.portate  0x40000a26        0xa ./src/spiglb.o
                0x40000a26                portate
 .data          0x40000a30        0x0 ./src/spimis.o
 .data          0x40000a30        0x0 ./src/spiutils.o
 .data          0x40000a30        0x0 ./src/spiwin2.o
 .data          0x40000a30        0x0 ./src/target.o
 .data          0x40000a30        0x0 ./src/vdip.o
 .data          0x40000a30        0x0 ./src/xxtea.o
 .data          0x40000a30        0x0 ./ff9/src/option/ccsbcs.o
 .data          0x40000a30        0x0 ./ff9/src/option/syscall.o
 .data          0x40000a30        0x0 ./ff9/src/ff.o
 .data          0x40000a30        0x0 ./CANopen_stack/LPC2388/CO_driver.o
 .data          0x40000a30        0x0 ./CANopen_stack/LPC2388/co_od.o
 .data.CO_OD_ROM
                0x40000a30      0x258 ./CANopen_stack/LPC2388/co_od.o
                0x40000a30                CO_OD_ROM
 .data.CO_OD_EEPROM
                0x40000c88       0x4c ./CANopen_stack/LPC2388/co_od.o
                0x40000c88                CO_OD_EEPROM
 *fill*         0x40000cd4        0x4 
 .data.CO_OD_RAM
                0x40000cd8      0x108 ./CANopen_stack/LPC2388/co_od.o
                0x40000cd8                CO_OD_RAM
 .data          0x40000de0        0x0 ./CANopen_stack/CANopen.o
 .data          0x40000de0        0x0 ./CANopen_stack/CO_Emergency.o
 .data          0x40000de0        0x0 ./CANopen_stack/CO_HBconsumer.o
 .data          0x40000de0        0x0 ./CANopen_stack/CO_NMT_Heartbeat.o
 .data          0x40000de0        0x0 ./CANopen_stack/CO_PDO.o
 .data          0x40000de0        0x0 ./CANopen_stack/CO_SDO.o
 .data          0x40000de0        0x0 ./CANopen_stack/CO_SDOmaster.o
 .data          0x40000de0        0x0 ./CANopen_stack/CO_SYNC.o
 .data          0x40000de0        0x0 /usr/local/lpcxpresso_7.8.0_426/lpcxpresso/tools/bin/../lib/gcc/arm-none-eabi/4.9.3/../../../../arm-none-eabi/lib/libcr_c.a(memcpy.o)
 .data          0x40000de0        0x0 /usr/local/lpcxpresso_7.8.0_426/lpcxpresso/tools/bin/../lib/gcc/arm-none-eabi/4.9.3/../../../../arm-none-eabi/lib/libcr_c.a(memset.o)
 .data          0x40000de0        0x0 /usr/local/lpcxpresso_7.8.0_426/lpcxpresso/tools/bin/../lib/gcc/arm-none-eabi/4.9.3/../../../../arm-none-eabi/lib/libcr_c.a(alloc.o)
 .data          0x40000de0        0x0 /usr/local/lpcxpresso_7.8.0_426/lpcxpresso/tools/bin/../lib/gcc/arm-none-eabi/4.9.3/../../../../arm-none-eabi/lib/libcr_c.a(ctype.o)
 .data          0x40000de0        0x0 /usr/local/lpcxpresso_7.8.0_426/lpcxpresso/tools/bin/../lib/gcc/arm-none-eabi/4.9.3/../../../../arm-none-eabi/lib/libcr_c.a(fabs.o)
 .data          0x40000de0        0x0 /usr/local/lpcxpresso_7.8.0_426/lpcxpresso/tools/bin/../lib/gcc/arm-none-eabi/4.9.3/../../../../arm-none-eabi/lib/libcr_c.a(fpprintf.o)
 .data          0x40000de0        0x0 /usr/local/lpcxpresso_7.8.0_426/lpcxpresso/tools/bin/../lib/gcc/arm-none-eabi/4.9.3/../../../../arm-none-eabi/lib/libcr_c.a(memcmp.o)
 .data          0x40000de0        0x0 /usr/local/lpcxpresso_7.8.0_426/lpcxpresso/tools/bin/../lib/gcc/arm-none-eabi/4.9.3/../../../../arm-none-eabi/lib/libcr_c.a(printf.o)
 .data          0x40000de0        0x0 /usr/local/lpcxpresso_7.8.0_426/lpcxpresso/tools/bin/../lib/gcc/arm-none-eabi/4.9.3/../../../../arm-none-eabi/lib/libcr_c.a(scanf.o)
 .data.neginf.4372
                0x40000de0        0x4 /usr/local/lpcxpresso_7.8.0_426/lpcxpresso/tools/bin/../lib/gcc/arm-none-eabi/4.9.3/../../../../arm-none-eabi/lib/libcr_c.a(scanf.o)
 .data.posinf.4371
                0x40000de4        0x4 /usr/local/lpcxpresso_7.8.0_426/lpcxpresso/tools/bin/../lib/gcc/arm-none-eabi/4.9.3/../../../../arm-none-eabi/lib/libcr_c.a(scanf.o)
 .data          0x40000de8        0x0 /usr/local/lpcxpresso_7.8.0_426/lpcxpresso/tools/bin/../lib/gcc/arm-none-eabi/4.9.3/../../../../arm-none-eabi/lib/libcr_c.a(stdio.o)
 .data          0x40000de8        0x0 /usr/local/lpcxpresso_7.8.0_426/lpcxpresso/tools/bin/../lib/gcc/arm-none-eabi/4.9.3/../../../../arm-none-eabi/lib/libcr_c.a(stdlib.o)
 .data.next     0x40000de8        0x4 /usr/local/lpcxpresso_7.8.0_426/lpcxpresso/tools/bin/../lib/gcc/arm-none-eabi/4.9.3/../../../../arm-none-eabi/lib/libcr_c.a(stdlib.o)
 .data._random_number_seed
                0x40000dec       0xdc /usr/local/lpcxpresso_7.8.0_426/lpcxpresso/tools/bin/../lib/gcc/arm-none-eabi/4.9.3/../../../../arm-none-eabi/lib/libcr_c.a(stdlib.o)
 .data._random_j
                0x40000ec8        0x4 /usr/local/lpcxpresso_7.8.0_426/lpcxpresso/tools/bin/../lib/gcc/arm-none-eabi/4.9.3/../../../../arm-none-eabi/lib/libcr_c.a(stdlib.o)
 .data._random_k
                0x40000ecc        0x4 /usr/local/lpcxpresso_7.8.0_426/lpcxpresso/tools/bin/../lib/gcc/arm-none-eabi/4.9.3/../../../../arm-none-eabi/lib/libcr_c.a(stdlib.o)
 .data          0x40000ed0        0x0 /usr/local/lpcxpresso_7.8.0_426/lpcxpresso/tools/bin/../lib/gcc/arm-none-eabi/4.9.3/../../../../arm-none-eabi/lib/libcr_c.a(strcat.o)
 .data          0x40000ed0        0x0 /usr/local/lpcxpresso_7.8.0_426/lpcxpresso/tools/bin/../lib/gcc/arm-none-eabi/4.9.3/../../../../arm-none-eabi/lib/libcr_c.a(strchr.o)
 .data          0x40000ed0        0x0 /usr/local/lpcxpresso_7.8.0_426/lpcxpresso/tools/bin/../lib/gcc/arm-none-eabi/4.9.3/../../../../arm-none-eabi/lib/libcr_c.a(strcmp.o)
 .data          0x40000ed0        0x0 /usr/local/lpcxpresso_7.8.0_426/lpcxpresso/tools/bin/../lib/gcc/arm-none-eabi/4.9.3/../../../../arm-none-eabi/lib/libcr_c.a(strcpy.o)
 .data          0x40000ed0        0x0 /usr/local/lpcxpresso_7.8.0_426/lpcxpresso/tools/bin/../lib/gcc/arm-none-eabi/4.9.3/../../../../arm-none-eabi/lib/libcr_c.a(strlen.o)
 .data          0x40000ed0        0x0 /usr/local/lpcxpresso_7.8.0_426/lpcxpresso/tools/bin/../lib/gcc/arm-none-eabi/4.9.3/../../../../arm-none-eabi/lib/libcr_c.a(strncat.o)
 .data          0x40000ed0        0x0 /usr/local/lpcxpresso_7.8.0_426/lpcxpresso/tools/bin/../lib/gcc/arm-none-eabi/4.9.3/../../../../arm-none-eabi/lib/libcr_c.a(strncmp.o)
 .data          0x40000ed0        0x0 /usr/local/lpcxpresso_7.8.0_426/lpcxpresso/tools/bin/../lib/gcc/arm-none-eabi/4.9.3/../../../../arm-none-eabi/lib/libcr_c.a(strncpy.o)
 .data          0x40000ed0        0x0 /usr/local/lpcxpresso_7.8.0_426/lpcxpresso/tools/bin/../lib/gcc/arm-none-eabi/4.9.3/../../../../arm-none-eabi/lib/libcr_c.a(strstr.o)
 .data          0x40000ed0        0x0 /usr/local/lpcxpresso_7.8.0_426/lpcxpresso/tools/bin/../lib/gcc/arm-none-eabi/4.9.3/../../../../arm-none-eabi/lib/libcr_c.a(ungetc.o)
 .data          0x40000ed0        0x0 /usr/local/lpcxpresso_7.8.0_426/lpcxpresso/tools/bin/../lib/gcc/arm-none-eabi/4.9.3/../../../../arm-none-eabi/lib/libcr_c.a(__fillbuf.o)
 .data          0x40000ed0        0x0 /usr/local/lpcxpresso_7.8.0_426/lpcxpresso/tools/bin/../lib/gcc/arm-none-eabi/4.9.3/../../../../arm-none-eabi/lib/libcr_c.a(__init_alloc.o)
 .data          0x40000ed0        0x0 /usr/local/lpcxpresso_7.8.0_426/lpcxpresso/tools/bin/../lib/gcc/arm-none-eabi/4.9.3/../../../../arm-none-eabi/lib/libcr_c.a(_cr_sbrk.o)
 .data          0x40000ed0        0x0 /usr/local/lpcxpresso_7.8.0_426/lpcxpresso/tools/bin/../lib/gcc/arm-none-eabi/4.9.3/../../../../arm-none-eabi/lib/libcr_c.a(_deferredlazyseek.o)
 .data          0x40000ed0        0x0 /usr/local/lpcxpresso_7.8.0_426/lpcxpresso/tools/bin/../lib/gcc/arm-none-eabi/4.9.3/../../../../arm-none-eabi/lib/libcr_c.a(_fflush.o)
 .data          0x40000ed0        0x0 /usr/local/lpcxpresso_7.8.0_426/lpcxpresso/tools/bin/../lib/gcc/arm-none-eabi/4.9.3/../../../../arm-none-eabi/lib/libcr_c.a(_frexpl.o)
 .data          0x40000ed0        0x0 /usr/local/lpcxpresso_7.8.0_426/lpcxpresso/tools/bin/../lib/gcc/arm-none-eabi/4.9.3/../../../../arm-none-eabi/lib/libcr_c.a(_hugeval.o)
 .data          0x40000ed0        0x0 /usr/local/lpcxpresso_7.8.0_426/lpcxpresso/tools/bin/../lib/gcc/arm-none-eabi/4.9.3/../../../../arm-none-eabi/lib/libcr_c.a(_ldexpl.o)
 .data          0x40000ed0        0x0 /usr/local/lpcxpresso_7.8.0_426/lpcxpresso/tools/bin/../lib/gcc/arm-none-eabi/4.9.3/../../../../arm-none-eabi/lib/libcr_c.a(_writebuf.o)
 .data          0x40000ed0        0x0 /usr/local/lpcxpresso_7.8.0_426/lpcxpresso/tools/bin/../lib/gcc/arm-none-eabi/4.9.3/../../../../arm-none-eabi/lib/libcr_c.a(errno.o)
 .data          0x40000ed0        0x0 /usr/local/lpcxpresso_7.8.0_426/lpcxpresso/tools/bin/../lib/gcc/arm-none-eabi/4.9.3/../../../../arm-none-eabi/lib/libcr_c.a(fseek.o)
 .data          0x40000ed0        0x0 /usr/local/lpcxpresso_7.8.0_426/lpcxpresso/tools/bin/../lib/gcc/arm-none-eabi/4.9.3/../../../../arm-none-eabi/lib/libcr_c.a(ftell.o)
 .data          0x40000ed0        0x0 /usr/local/lpcxpresso_7.8.0_426/lpcxpresso/tools/bin/../lib/gcc/arm-none-eabi/4.9.3/../../../../arm-none-eabi/lib/libcr_c.a(initio.o)
 .data          0x40000ed0        0x0 /usr/local/lpcxpresso_7.8.0_426/lpcxpresso/tools/bin/../lib/gcc/arm-none-eabi/4.9.3/../../../../arm-none-eabi/lib/libcr_c.a(raise.o)
 .data          0x40000ed0        0x0 /usr/local/lpcxpresso_7.8.0_426/lpcxpresso/tools/bin/../lib/gcc/arm-none-eabi/4.9.3/../../../../arm-none-eabi/lib/libcr_c.a(setvbuf.o)
 .data          0x40000ed0        0x0 /usr/local/lpcxpresso_7.8.0_426/lpcxpresso/tools/bin/../lib/gcc/arm-none-eabi/4.9.3/../../../../arm-none-eabi/lib/libcr_c.a(_cr_check_heap.o)
 .data          0x40000ed0        0x0 /usr/local/lpcxpresso_7.8.0_426/lpcxpresso/tools/bin/../lib/gcc/arm-none-eabi/4.9.3/../../../../arm-none-eabi/lib/libcr_c.a(_fdopen.o)
 .data          0x40000ed0        0x0 /usr/local/lpcxpresso_7.8.0_426/lpcxpresso/tools/bin/../lib/gcc/arm-none-eabi/4.9.3/../../../../arm-none-eabi/lib/libcr_c.a(fclose.o)
 .data          0x40000ed0        0x0 /usr/local/lpcxpresso_7.8.0_426/lpcxpresso/tools/bin/../lib/gcc/arm-none-eabi/4.9.3/../../../../arm-none-eabi/lib/libcr_c.a(fflush.o)
 .data          0x40000ed0        0x0 /usr/local/lpcxpresso_7.8.0_426/lpcxpresso/tools/bin/../lib/gcc/arm-none-eabi/4.9.3/../../../../arm-none-eabi/lib/libcr_c.a(remove.o)
 .data          0x40000ed0        0x0 /usr/local/lpcxpresso_7.8.0_426/lpcxpresso/tools/bin/../lib/gcc/arm-none-eabi/4.9.3/../../../../arm-none-eabi/lib/libcr_c.a(_do_fflush.o)
 .data          0x40000ed0        0x0 /usr/local/lpcxpresso_7.8.0_426/lpcxpresso/tools/bin/../lib/gcc/arm-none-eabi/4.9.3/libcr_eabihelpers.a(double.o)
 .data          0x40000ed0        0x0 /usr/local/lpcxpresso_7.8.0_426/lpcxpresso/tools/bin/../lib/gcc/arm-none-eabi/4.9.3/libcr_eabihelpers.a(float.o)
 .data          0x40000ed0        0x0 /usr/local/lpcxpresso_7.8.0_426/lpcxpresso/tools/bin/../lib/gcc/arm-none-eabi/4.9.3/libcr_eabihelpers.a(helpers.o)
 .data          0x40000ed0        0x0 /usr/local/lpcxpresso_7.8.0_426/lpcxpresso/tools/bin/../lib/gcc/arm-none-eabi/4.9.3/libcr_eabihelpers.a(rtlib.o)
 .data          0x40000ed0        0x0 /usr/local/lpcxpresso_7.8.0_426/lpcxpresso/tools/bin/../lib/gcc/arm-none-eabi/4.9.3/../../../../arm-none-eabi/lib/libcr_nohost.a(__sys_appexit.o)
 .data          0x40000ed0        0x0 /usr/local/lpcxpresso_7.8.0_426/lpcxpresso/tools/bin/../lib/gcc/arm-none-eabi/4.9.3/../../../../arm-none-eabi/lib/libcr_nohost.a(__sys_close.o)
 .data          0x40000ed0        0x0 /usr/local/lpcxpresso_7.8.0_426/lpcxpresso/tools/bin/../lib/gcc/arm-none-eabi/4.9.3/../../../../arm-none-eabi/lib/libcr_nohost.a(__sys_flen.o)
 .data          0x40000ed0        0x0 /usr/local/lpcxpresso_7.8.0_426/lpcxpresso/tools/bin/../lib/gcc/arm-none-eabi/4.9.3/../../../../arm-none-eabi/lib/libcr_nohost.a(__sys_istty.o)
 .data          0x40000ed0        0x0 /usr/local/lpcxpresso_7.8.0_426/lpcxpresso/tools/bin/../lib/gcc/arm-none-eabi/4.9.3/../../../../arm-none-eabi/lib/libcr_nohost.a(__sys_read.o)
 .data          0x40000ed0        0x0 /usr/local/lpcxpresso_7.8.0_426/lpcxpresso/tools/bin/../lib/gcc/arm-none-eabi/4.9.3/../../../../arm-none-eabi/lib/libcr_nohost.a(__sys_readc.o)
 .data          0x40000ed0        0x0 /usr/local/lpcxpresso_7.8.0_426/lpcxpresso/tools/bin/../lib/gcc/arm-none-eabi/4.9.3/../../../../arm-none-eabi/lib/libcr_nohost.a(__sys_remove.o)
 .data          0x40000ed0        0x0 /usr/local/lpcxpresso_7.8.0_426/lpcxpresso/tools/bin/../lib/gcc/arm-none-eabi/4.9.3/../../../../arm-none-eabi/lib/libcr_nohost.a(__sys_rename.o)
 .data          0x40000ed0        0x0 /usr/local/lpcxpresso_7.8.0_426/lpcxpresso/tools/bin/../lib/gcc/arm-none-eabi/4.9.3/../../../../arm-none-eabi/lib/libcr_nohost.a(__sys_seek.o)
 .data          0x40000ed0        0x0 /usr/local/lpcxpresso_7.8.0_426/lpcxpresso/tools/bin/../lib/gcc/arm-none-eabi/4.9.3/../../../../arm-none-eabi/lib/libcr_nohost.a(__sys_tmpnam.o)
 .data          0x40000ed0        0x0 /usr/local/lpcxpresso_7.8.0_426/lpcxpresso/tools/bin/../lib/gcc/arm-none-eabi/4.9.3/../../../../arm-none-eabi/lib/libcr_nohost.a(__sys_write.o)
                0x40000ed0                . = ALIGN (0x4)
                0x40000ed0                _edata = .

.igot.plt       0x40000ed0        0x0 load address 0x000523c8
 .igot.plt      0x00000000        0x0 ./src/Anybus.o

.bss_RAM2       0x7fe00000        0x0
                0x7fe00000                PROVIDE (__start_bss_RAM2, .)
 *(.bss.$RAM2*)
 *(.bss.$RAM_ETH_16*)
                0x7fe00000                . = ALIGN (0x4)
                0x7fe00000                PROVIDE (__end_bss_RAM2, .)

.bss_RAM3       0x7fd00000        0x0
                0x7fd00000                PROVIDE (__start_bss_RAM3, .)
 *(.bss.$RAM3*)
 *(.bss.$RAM_USB_16*)
                0x7fd00000                . = ALIGN (0x4)
                0x7fd00000                PROVIDE (__end_bss_RAM3, .)

.bss_RAM4       0xe0084000        0x0
                0xe0084000                PROVIDE (__start_bss_RAM4, .)
 *(.bss.$RAM4*)
 *(.bss.$RAM_RTC_2*)
                0xe0084000                . = ALIGN (0x4)
                0xe0084000                PROVIDE (__end_bss_RAM4, .)

.bss            0x40000ee0     0x836c load address 0x000523e0
                0x40000ee0                _bss = .
                0x40000ee0                _sbss = .
                0x40000ee0                _lib_bss_start = .
 *libc.a:*(.bss)
 *libgcc.a:*(.bss)
 *std_sbrk.lib:*(.bss)
 *target.o(.bss)
 .bss           0x40000ee0        0x0 ./src/target.o
 *codelist.o(.bss)
 .bss           0x40000ee0        0x0 ./src/codelist.o
 *Anybus.o(.bss)
 .bss           0x40000ee0        0x0 ./src/Anybus.o
 *rtcDS3231.o(.bss)
 *spiwin2.o(.bss)
 .bss           0x40000ee0        0x0 ./src/spiwin2.o
 *vdip.o(.bss)
 .bss           0x40000ee0        0x0 ./src/vdip.o
                0x40000ee0                _lib_bss_end = .
 *(.bss*)
 .bss.ui_error_id
                0x40000ee0        0x4 ./src/Anybus.o
 .bss.u_anybus  0x40000ee4        0x4 ./src/Anybus.o
 .bss.ui_modbus_error
                0x40000ee8        0x4 ./src/Anybus.o
 .bss.uiHysteresisAcceptRemote.7876
                0x40000eec        0x4 ./src/Anybus.o
 .bss           0x40000ef0        0x0 ./src/I2C_Master.o
 .bss.uc_cnt_i2c_not_free
                0x40000ef0        0x1 ./src/I2C_Master.o
 .bss           0x40000ef1        0x0 ./src/az4186_can.o
 *fill*         0x40000ef1        0x3 
 .bss.CAN1ErrCount
                0x40000ef4        0x4 ./src/az4186_can.o
                0x40000ef4                CAN1ErrCount
 .bss.CAN2ErrCount
                0x40000ef8        0x4 ./src/az4186_can.o
                0x40000ef8                CAN2ErrCount
 .bss.CAN1RxCount
                0x40000efc        0x4 ./src/az4186_can.o
                0x40000efc                CAN1RxCount
 .bss.CAN2RxCount
                0x40000f00        0x4 ./src/az4186_can.o
                0x40000f00                CAN2RxCount
 .bss           0x40000f04        0x0 ./src/az4186_dac.o
 .bss.last_selected_portata
                0x40000f04        0x1 ./src/az4186_dac.o
 .bss           0x40000f05        0x0 ./src/az4186_eeprom_24c04.o
 .bss           0x40000f05        0x0 ./src/az4186_emc.o
 .bss           0x40000f05        0x0 ./src/az4186_files.o
 *fill*         0x40000f05        0x3 
 .bss.explore_dir.6951
                0x40000f08       0x48 ./src/az4186_files.o
 .bss           0x40000f50        0x0 ./src/az4186_initHw.o
 .bss.my_saved_vic
                0x40000f50        0x4 ./src/az4186_initHw.o
 .bss.my_actual_vic
                0x40000f54        0x4 ./src/az4186_initHw.o
 .bss           0x40000f58        0x0 ./src/az4186_program_codes.o
 .bss           0x40000f58        0x0 ./src/az4186_temperature_compensation.o
 .bss.temperature_filter
                0x40000f58       0xcc ./src/az4186_temperature_compensation.o
 .bss           0x40001024        0x0 ./src/az4186_window_temperature_compensation.o
 .bss.f_temperature_compensation_t_celsius
                0x40001024        0x8 ./src/az4186_window_temperature_compensation.o
 .bss.f_temperature_compensation_coeff
                0x4000102c        0x8 ./src/az4186_window_temperature_compensation.o
 .bss.ucTheStringLang_Aux
                0x40001034       0x29 ./src/codelist.o
 .bss           0x4000105d        0x0 ./src/crp.o
 .bss           0x4000105d        0x0 ./src/diskio.o
 *fill*         0x4000105d        0x3 
 .bss.Timer1    0x40001060        0x4 ./src/diskio.o
 .bss.Timer2    0x40001064        0x4 ./src/diskio.o
 .bss.CardType  0x40001068        0x4 ./src/diskio.o
 .bss           0x4000106c        0x0 ./src/dma.o
 .bss.DMATCCount.3749
                0x4000106c        0x4 ./src/dma.o
 .bss.DMAErrCount.3750
                0x40001070        0x4 ./src/dma.o
 .bss           0x40001074        0x0 ./src/fat_time.o
 .bss           0x40001074        0x0 ./src/file_list.o
 .bss.key_buffer.4448
                0x40001074       0x20 ./src/file_list.o
 .bss.crc_tab32_init
                0x40001094        0x4 ./src/file_list.o
 .bss.footer.4418
                0x40001098       0x10 ./src/file_list.o
 .bss.crc_tab32
                0x400010a8      0x400 ./src/file_list.o
 .bss.ff_list.4463
                0x400014a8       0x14 ./src/file_list.o
 .bss.footer.4442
                0x400014bc       0x10 ./src/file_list.o
 .bss.ul_offset_last_element_found
                0x400014cc        0x4 ./src/file_list.o
 .bss.header.4405
                0x400014d0       0x14 ./src/file_list.o
 .bss.header.4417
                0x400014e4       0x14 ./src/file_list.o
 .bss.ff_list.4492
                0x400014f8       0x14 ./src/file_list.o
 .bss.footer.4406
                0x4000150c       0x10 ./src/file_list.o
 .bss           0x4000151c        0x0 ./src/gui.o
 .bss.p.7109    0x4000151c        0x4 ./src/gui.o
 .bss.myTitleString.7216
                0x40001520       0x2d ./src/gui.o
 *fill*         0x4000154d        0x3 
 .bss.fResult4.7298
                0x40001550       0x10 ./src/gui.o
 .bss.testoCalibraLcd
                0x40001560       0x48 ./src/gui.o
 .bss.fVector4.7297
                0x400015a8       0x10 ./src/gui.o
 .bss.cursorText.7272
                0x400015b8        0x2 ./src/gui.o
 *fill*         0x400015ba        0x2 
 .bss.fMatrix4x4.7296
                0x400015bc       0x40 ./src/gui.o
 .bss.iCalibraLcdReal
                0x400015fc       0x80 ./src/gui.o
 .bss.iCalibraLcdIdeal
                0x4000167c       0x80 ./src/gui.o
 .bss           0x400016fc        0x0 ./src/i2c.o
 .bss.i2c_engine_started
                0x400016fc        0x1 ./src/i2c.o
                0x400016fc                i2c_engine_started
 *fill*         0x400016fd        0x3 
 .bss.RdIndex   0x40001700        0x4 ./src/i2c.o
                0x40001700                RdIndex
 .bss.I2CMasterState
                0x40001704        0x4 ./src/i2c.o
                0x40001704                I2CMasterState
 .bss.WrIndex   0x40001708        0x4 ./src/i2c.o
                0x40001708                WrIndex
 .bss.I2CSlaveState
                0x4000170c        0x4 ./src/i2c.o
                0x4000170c                I2CSlaveState
 .bss.I2CCount  0x40001710        0x4 ./src/i2c.o
                0x40001710                I2CCount
 .bss           0x40001714        0x0 ./src/inverse_v1.o
 .bss.matrix_4x4_inv
                0x40001714       0x40 ./src/inverse_v1.o
 .bss           0x40001754        0x0 ./src/lcd.o
 .bss.oldpPosY.4530
                0x40001754        0x4 ./src/lcd.o
 .bss.oldPosX.4529
                0x40001758        0x4 ./src/lcd.o
 .bss.save.4531
                0x4000175c        0xc ./src/lcd.o
 .bss           0x40001768        0x0 ./src/main.o
 .bss           0x40001768        0x0 ./src/mci.o
 .bss.DataStartbitErrCount
                0x40001768        0x4 ./src/mci.o
                0x40001768                DataStartbitErrCount
 .bss.MCI_Block_End_Flag
                0x4000176c        0x4 ./src/mci.o
                0x4000176c                MCI_Block_End_Flag
 .bss.DataBlockEndCount
                0x40001770        0x4 ./src/mci.o
                0x40001770                DataBlockEndCount
 .bss.DataCRCErrCount
                0x40001774        0x4 ./src/mci.o
                0x40001774                DataCRCErrCount
 .bss.CmdActiveCount
                0x40001778        0x4 ./src/mci.o
                0x40001778                CmdActiveCount
 .bss.CmdCRCErrCount
                0x4000177c        0x4 ./src/mci.o
                0x4000177c                CmdCRCErrCount
 .bss.MCI_DataErrorProcess_count
                0x40001780        0x4 ./src/mci.o
                0x40001780                MCI_DataErrorProcess_count
 .bss.DataTxUnderrunErrCount
                0x40001784        0x4 ./src/mci.o
                0x40001784                DataTxUnderrunErrCount
 .bss.CmdTimeoutErrCount
                0x40001788        0x4 ./src/mci.o
                0x40001788                CmdTimeoutErrCount
 .bss.MCI_DATA_END_InterruptService_count
                0x4000178c        0x4 ./src/mci.o
                0x4000178c                MCI_DATA_END_InterruptService_count
 .bss.CmdSentCount
                0x40001790        0x4 ./src/mci.o
                0x40001790                CmdSentCount
 .bss.CmdRespEndCount
                0x40001794        0x4 ./src/mci.o
                0x40001794                CmdRespEndCount
 .bss.DataRxOverrunErrCount
                0x40001798        0x4 ./src/mci.o
                0x40001798                DataRxOverrunErrCount
 .bss.DataFIFOCount
                0x4000179c        0x4 ./src/mci.o
                0x4000179c                DataFIFOCount
 .bss.DataRxFIFOCount
                0x400017a0        0x4 ./src/mci.o
                0x400017a0                DataRxFIFOCount
 .bss.DataTxFIFOCount
                0x400017a4        0x4 ./src/mci.o
                0x400017a4                DataTxFIFOCount
 .bss.DataRxActiveCount
                0x400017a8        0x4 ./src/mci.o
                0x400017a8                DataRxActiveCount
 .bss.RXBlockCounter
                0x400017ac        0x4 ./src/mci.o
                0x400017ac                RXBlockCounter
 .bss.MCI_CmdProcess_count
                0x400017b0        0x4 ./src/mci.o
                0x400017b0                MCI_CmdProcess_count
 .bss.MCI_FIFOInterruptService_count
                0x400017b4        0x4 ./src/mci.o
                0x400017b4                MCI_FIFOInterruptService_count
 .bss.DataTimeoutErrCount
                0x400017b8        0x4 ./src/mci.o
                0x400017b8                DataTimeoutErrCount
 .bss.DataTxActiveCount
                0x400017bc        0x4 ./src/mci.o
                0x400017bc                DataTxActiveCount
 .bss.TXBlockCounter
                0x400017c0        0x4 ./src/mci.o
                0x400017c0                TXBlockCounter
 .bss.DataEndCount
                0x400017c4        0x4 ./src/mci.o
                0x400017c4                DataEndCount
 .bss           0x400017c8        0x0 ./src/params.o
 .bss.idxParametro.8134
                0x400017c8        0x1 ./src/params.o
 .bss.ucLoadMacFileStato.7675
                0x400017c9        0x1 ./src/params.o
 .bss.ucStatoSaving
                0x400017ca        0x1 ./src/params.o
 *fill*         0x400017cb        0x1 
 .bss.uiNumRecordString20.7784
                0x400017cc        0x4 ./src/params.o
 .bss.uiFileLength.7676
                0x400017d0        0x4 ./src/params.o
 .bss.u_save_pars
                0x400017d4        0x4 ./src/params.o
 .bss.ucFtdi_DateTime.7484
                0x400017d8        0xb ./src/params.o
 *fill*         0x400017e3        0x1 
 .bss.handle_grinding.7391
                0x400017e4        0x8 ./src/params.o
 .bss.ucSuperUser_passwordChecked
                0x400017ec        0x1 ./src/params.o
                0x400017ec                ucSuperUser_passwordChecked
 .bss.ucIAmSavingMachineParametersOnUsb
                0x400017ed        0x1 ./src/params.o
 *fill*         0x400017ee        0x2 
 .bss.uiNumRecordString40.7785
                0x400017f0        0x4 ./src/params.o
 .bss.ucLoadMacFileStato.7730
                0x400017f4        0x1 ./src/params.o
 .bss.ucSaveTheProgram.8135
                0x400017f5        0x1 ./src/params.o
 .bss.ucLivingSaveParams
                0x400017f6        0x1 ./src/params.o
 .bss.ucDoReboot.7871
                0x400017f7        0x1 ./src/params.o
 .bss           0x400017f8        0x0 ./src/popup.o
 .bss.remoteCommandStatus.7088
                0x400017f8        0x1 ./src/popup.o
 .bss           0x400017f9        0x0 ./src/rtcDS3231_newer.o
 .bss           0x400017f9        0x0 ./src/spi.o
 .bss.uc_elapsed_time_initialized.7783
                0x400017f9        0x1 ./src/spi.o
 .bss.ucAutoScrollLogChunk.7848
                0x400017fa        0x1 ./src/spi.o
 .bss.uc_last_clock_canopen.7784
                0x400017fb        0x1 ./src/spi.o
 .bss.ucIdxFirstRow_LP.7849
                0x400017fc        0x1 ./src/spi.o
 .bss           0x400017fd        0x0 ./src/spidbg.o
 *fill*         0x400017fd        0x3 
 .bss.fAux.7140
                0x40001800       0x10 ./src/spidbg.o
 .bss.uc_visualize_temperature.7150
                0x40001810        0x1 ./src/spidbg.o
 .bss.ucPretaglioPressed.7144
                0x40001811        0x1 ./src/spidbg.o
 *fill*         0x40001812        0x2 
 .bss.pPro.7138
                0x40001814        0x4 ./src/spidbg.o
 .bss.ucCtrlProduzione_PrgWasRunning.7147
                0x40001818        0x1 ./src/spidbg.o
 *fill*         0x40001819        0x3 
 .bss.pComm_static.7139
                0x4000181c        0x4 ./src/spidbg.o
 .bss.ucRegolazioniAttive.7145
                0x40001820        0x1 ./src/spidbg.o
 *fill*         0x40001821        0x3 
 .bss.ndo_prev.7141
                0x40001824        0x4 ./src/spidbg.o
 .bss.toggle_visualize_temperature_timeout.7149
                0x40001828        0x8 ./src/spidbg.o
 .bss.ucRemember2saveActPrg.7146
                0x40001830        0x1 ./src/spidbg.o
 .bss.ucCharMuoviPotenziometri.7143
                0x40001831        0x3 ./src/spidbg.o
 .bss.iCounts_EncoderInputs.7862
                0x40001834        0x4 ./src/spidbg.o
 .bss.ucRememberTaraturaInCorso.7904
                0x40001838        0x1 ./src/spidbg.o
 .bss.ucPressChange_regola_distanzia.7148
                0x40001839        0x1 ./src/spidbg.o
 .bss           0x4000183a        0x0 ./src/spiglb.o
 *fill*         0x4000183a        0x2 
 .bss.spazio    0x4000183c        0x4 ./src/spiglb.o
                0x4000183c                spazio
 .bss.tempo     0x40001840        0x4 ./src/spiglb.o
                0x40001840                tempo
 .bss.nImpulsi  0x40001844        0x4 ./src/spiglb.o
                0x40001844                nImpulsi
 .bss.gapT      0x40001848        0x4 ./src/spiglb.o
                0x40001848                gapT
 .bss.velMMin   0x4000184c        0x4 ./src/spiglb.o
                0x4000184c                velMMin
 .bss           0x40001850        0x0 ./src/spimis.o
 .bss.ul_count_loop_ok.6865
                0x40001850        0x4 ./src/spimis.o
 .bss.ul_count_loop_auto_latch_disabled.6866
                0x40001854        0x4 ./src/spimis.o
 .bss.uiAux.6864
                0x40001858        0x4 ./src/spimis.o
 .bss.ucNumErrors_LatchFpga
                0x4000185c        0x1 ./src/spimis.o
 .bss.uc_in_timer0_interrupt
                0x4000185d        0x1 ./src/spimis.o
                0x4000185d                uc_in_timer0_interrupt
 *fill*         0x4000185e        0x2 
 .bss.ui_cnt_in_timer0_interrupt
                0x40001860        0x4 ./src/spimis.o
                0x40001860                ui_cnt_in_timer0_interrupt
 .bss.lFinalResValue.6965
                0x40001864        0x4 ./src/spimis.o
 .bss           0x40001868        0x0 ./src/spiutils.o
 .bss.ucEnableDistanziatore.7445
                0x40001868        0x1 ./src/spiutils.o
 .bss.ucVisualizeUpArrow.7443
                0x40001869        0x1 ./src/spiutils.o
 .bss.ucTheCodeIsvalid.7442
                0x4000186a        0x1 ./src/spiutils.o
 *fill*         0x4000186b        0x1 
 .bss.uiSaveTimeoutLcd_NumK.7335
                0x4000186c        0x4 ./src/spiutils.o
 .bss.ucEnableTempComp.7446
                0x40001870        0x1 ./src/spiutils.o
 .bss.ucMaskLastSearch.7444
                0x40001871        0x1 ./src/spiutils.o
 .bss.ucCodiceIngresso_Manuale.7352
                0x40001872       0x15 ./src/spiwin2.o
 .bss.ucDIST_Remember2saveActPrg.7565
                0x40001887        0x1 ./src/spiwin2.o
 .bss.buttons_ids.7627
                0x40001888        0x9 ./src/spiwin2.o
 *fill*         0x40001891        0x3 
 .bss.uiTimeCycleCalibrationCutSensor_Ms.7420
                0x40001894        0x4 ./src/spiwin2.o
 .bss.cur_buttons_ids.7628
                0x40001898        0x6 ./src/spiwin2.o
 *fill*         0x4000189e        0x2 
 .bss.uiTimeCycleCalibrationCutSensor_Cnt.7421
                0x400018a0        0x4 ./src/spiwin2.o
 .bss.ucSensorCycle_Active.7415
                0x400018a4        0x1 ./src/spiwin2.o
 .bss.ucOldPrgRunning.7050
                0x400018a5        0x1 ./src/spiwin2.o
 .bss.ucDIST_Remember2saveMacParms.7566
                0x400018a6        0x1 ./src/spiwin2.o
 *fill*         0x400018a7        0x1 
 .bss.uiTimeCycleCalibrationCutSensor_Cnt_Act.7419
                0x400018a8        0x4 ./src/spiwin2.o
 .bss.fColtello_Step2mm.7418
                0x400018ac        0x4 ./src/spiwin2.o
 .bss.uc_0slow_1fast_dacColtello.7417
                0x400018b0        0x1 ./src/spiwin2.o
 .bss.ucDataDac.7416
                0x400018b1        0x1 ./src/spiwin2.o
 *fill*         0x400018b2        0x2 
 .bss.uiMaxLoopR
                0x400018b4        0x4 ./src/vdip.o
                0x400018b4                uiMaxLoopR
 .bss.ucMaxLoopW
                0x400018b8        0x1 ./src/vdip.o
                0x400018b8                ucMaxLoopW
 .bss           0x400018b9        0x0 ./src/xxtea.o
 .bss           0x400018b9        0x0 ./ff9/src/option/ccsbcs.o
 .bss           0x400018b9        0x0 ./ff9/src/option/syscall.o
 .bss           0x400018b9        0x0 ./ff9/src/ff.o
 .bss.CurrVol   0x400018b9        0x1 ./ff9/src/ff.o
 .bss.Fsid      0x400018ba        0x2 ./ff9/src/ff.o
 .bss.LfnBuf    0x400018bc      0x200 ./ff9/src/ff.o
 .bss           0x40001abc        0x0 ./CANopen_stack/LPC2388/CO_driver.o
 .bss           0x40001abc        0x0 ./CANopen_stack/LPC2388/co_od.o
 .bss           0x40001abc        0x0 ./CANopen_stack/CANopen.o
 .bss.ms50.5057
                0x40001abc        0x1 ./CANopen_stack/CANopen.o
 .bss           0x40001abd        0x0 ./CANopen_stack/CO_Emergency.o
 .bss           0x40001abd        0x0 ./CANopen_stack/CO_HBconsumer.o
 .bss           0x40001abd        0x0 ./CANopen_stack/CO_NMT_Heartbeat.o
 .bss           0x40001abd        0x0 ./CANopen_stack/CO_PDO.o
 *fill*         0x40001abd        0x3 
 .bss.dummyRX.4855
                0x40001ac0        0x4 ./CANopen_stack/CO_PDO.o
 .bss.dummyTX.4854
                0x40001ac4        0x4 ./CANopen_stack/CO_PDO.o
 .bss           0x40001ac8        0x0 ./CANopen_stack/CO_SDO.o
 .bss           0x40001ac8        0x0 ./CANopen_stack/CO_SDOmaster.o
 .bss           0x40001ac8        0x0 ./CANopen_stack/CO_SYNC.o
 .bss           0x40001ac8        0x0 /usr/local/lpcxpresso_7.8.0_426/lpcxpresso/tools/bin/../lib/gcc/arm-none-eabi/4.9.3/../../../../arm-none-eabi/lib/libcr_c.a(memcpy.o)
 .bss           0x40001ac8        0x0 /usr/local/lpcxpresso_7.8.0_426/lpcxpresso/tools/bin/../lib/gcc/arm-none-eabi/4.9.3/../../../../arm-none-eabi/lib/libcr_c.a(memset.o)
 .bss           0x40001ac8        0x0 /usr/local/lpcxpresso_7.8.0_426/lpcxpresso/tools/bin/../lib/gcc/arm-none-eabi/4.9.3/../../../../arm-none-eabi/lib/libcr_c.a(alloc.o)
 .bss           0x40001ac8        0x0 /usr/local/lpcxpresso_7.8.0_426/lpcxpresso/tools/bin/../lib/gcc/arm-none-eabi/4.9.3/../../../../arm-none-eabi/lib/libcr_c.a(ctype.o)
 .bss           0x40001ac8        0x0 /usr/local/lpcxpresso_7.8.0_426/lpcxpresso/tools/bin/../lib/gcc/arm-none-eabi/4.9.3/../../../../arm-none-eabi/lib/libcr_c.a(fabs.o)
 .bss           0x40001ac8        0x0 /usr/local/lpcxpresso_7.8.0_426/lpcxpresso/tools/bin/../lib/gcc/arm-none-eabi/4.9.3/../../../../arm-none-eabi/lib/libcr_c.a(fpprintf.o)
 .bss           0x40001ac8        0x0 /usr/local/lpcxpresso_7.8.0_426/lpcxpresso/tools/bin/../lib/gcc/arm-none-eabi/4.9.3/../../../../arm-none-eabi/lib/libcr_c.a(memcmp.o)
 .bss           0x40001ac8        0x0 /usr/local/lpcxpresso_7.8.0_426/lpcxpresso/tools/bin/../lib/gcc/arm-none-eabi/4.9.3/../../../../arm-none-eabi/lib/libcr_c.a(printf.o)
 .bss           0x40001ac8        0x0 /usr/local/lpcxpresso_7.8.0_426/lpcxpresso/tools/bin/../lib/gcc/arm-none-eabi/4.9.3/../../../../arm-none-eabi/lib/libcr_c.a(scanf.o)
 .bss           0x40001ac8        0x0 /usr/local/lpcxpresso_7.8.0_426/lpcxpresso/tools/bin/../lib/gcc/arm-none-eabi/4.9.3/../../../../arm-none-eabi/lib/libcr_c.a(stdio.o)
 .bss           0x40001ac8        0x0 /usr/local/lpcxpresso_7.8.0_426/lpcxpresso/tools/bin/../lib/gcc/arm-none-eabi/4.9.3/../../../../arm-none-eabi/lib/libcr_c.a(stdlib.o)
 .bss           0x40001ac8        0x0 /usr/local/lpcxpresso_7.8.0_426/lpcxpresso/tools/bin/../lib/gcc/arm-none-eabi/4.9.3/../../../../arm-none-eabi/lib/libcr_c.a(strcat.o)
 .bss           0x40001ac8        0x0 /usr/local/lpcxpresso_7.8.0_426/lpcxpresso/tools/bin/../lib/gcc/arm-none-eabi/4.9.3/../../../../arm-none-eabi/lib/libcr_c.a(strchr.o)
 .bss           0x40001ac8        0x0 /usr/local/lpcxpresso_7.8.0_426/lpcxpresso/tools/bin/../lib/gcc/arm-none-eabi/4.9.3/../../../../arm-none-eabi/lib/libcr_c.a(strcmp.o)
 .bss           0x40001ac8        0x0 /usr/local/lpcxpresso_7.8.0_426/lpcxpresso/tools/bin/../lib/gcc/arm-none-eabi/4.9.3/../../../../arm-none-eabi/lib/libcr_c.a(strcpy.o)
 .bss           0x40001ac8        0x0 /usr/local/lpcxpresso_7.8.0_426/lpcxpresso/tools/bin/../lib/gcc/arm-none-eabi/4.9.3/../../../../arm-none-eabi/lib/libcr_c.a(strlen.o)
 .bss           0x40001ac8        0x0 /usr/local/lpcxpresso_7.8.0_426/lpcxpresso/tools/bin/../lib/gcc/arm-none-eabi/4.9.3/../../../../arm-none-eabi/lib/libcr_c.a(strncat.o)
 .bss           0x40001ac8        0x0 /usr/local/lpcxpresso_7.8.0_426/lpcxpresso/tools/bin/../lib/gcc/arm-none-eabi/4.9.3/../../../../arm-none-eabi/lib/libcr_c.a(strncmp.o)
 .bss           0x40001ac8        0x0 /usr/local/lpcxpresso_7.8.0_426/lpcxpresso/tools/bin/../lib/gcc/arm-none-eabi/4.9.3/../../../../arm-none-eabi/lib/libcr_c.a(strncpy.o)
 .bss           0x40001ac8        0x0 /usr/local/lpcxpresso_7.8.0_426/lpcxpresso/tools/bin/../lib/gcc/arm-none-eabi/4.9.3/../../../../arm-none-eabi/lib/libcr_c.a(strstr.o)
 .bss           0x40001ac8        0x0 /usr/local/lpcxpresso_7.8.0_426/lpcxpresso/tools/bin/../lib/gcc/arm-none-eabi/4.9.3/../../../../arm-none-eabi/lib/libcr_c.a(ungetc.o)
 .bss           0x40001ac8        0x0 /usr/local/lpcxpresso_7.8.0_426/lpcxpresso/tools/bin/../lib/gcc/arm-none-eabi/4.9.3/../../../../arm-none-eabi/lib/libcr_c.a(__fillbuf.o)
 .bss           0x40001ac8        0x0 /usr/local/lpcxpresso_7.8.0_426/lpcxpresso/tools/bin/../lib/gcc/arm-none-eabi/4.9.3/../../../../arm-none-eabi/lib/libcr_c.a(__init_alloc.o)
 .bss           0x40001ac8        0x0 /usr/local/lpcxpresso_7.8.0_426/lpcxpresso/tools/bin/../lib/gcc/arm-none-eabi/4.9.3/../../../../arm-none-eabi/lib/libcr_c.a(_cr_sbrk.o)
 .bss           0x40001ac8        0x0 /usr/local/lpcxpresso_7.8.0_426/lpcxpresso/tools/bin/../lib/gcc/arm-none-eabi/4.9.3/../../../../arm-none-eabi/lib/libcr_c.a(_deferredlazyseek.o)
 .bss           0x40001ac8        0x0 /usr/local/lpcxpresso_7.8.0_426/lpcxpresso/tools/bin/../lib/gcc/arm-none-eabi/4.9.3/../../../../arm-none-eabi/lib/libcr_c.a(_fflush.o)
 .bss           0x40001ac8        0x0 /usr/local/lpcxpresso_7.8.0_426/lpcxpresso/tools/bin/../lib/gcc/arm-none-eabi/4.9.3/../../../../arm-none-eabi/lib/libcr_c.a(_frexpl.o)
 .bss           0x40001ac8        0x0 /usr/local/lpcxpresso_7.8.0_426/lpcxpresso/tools/bin/../lib/gcc/arm-none-eabi/4.9.3/../../../../arm-none-eabi/lib/libcr_c.a(_hugeval.o)
 .bss           0x40001ac8        0x0 /usr/local/lpcxpresso_7.8.0_426/lpcxpresso/tools/bin/../lib/gcc/arm-none-eabi/4.9.3/../../../../arm-none-eabi/lib/libcr_c.a(_ldexpl.o)
 .bss           0x40001ac8        0x0 /usr/local/lpcxpresso_7.8.0_426/lpcxpresso/tools/bin/../lib/gcc/arm-none-eabi/4.9.3/../../../../arm-none-eabi/lib/libcr_c.a(_writebuf.o)
 .bss           0x40001ac8        0x0 /usr/local/lpcxpresso_7.8.0_426/lpcxpresso/tools/bin/../lib/gcc/arm-none-eabi/4.9.3/../../../../arm-none-eabi/lib/libcr_c.a(errno.o)
 .bss.errno     0x40001ac8        0x4 /usr/local/lpcxpresso_7.8.0_426/lpcxpresso/tools/bin/../lib/gcc/arm-none-eabi/4.9.3/../../../../arm-none-eabi/lib/libcr_c.a(errno.o)
                0x40001ac8                errno
 .bss           0x40001acc        0x0 /usr/local/lpcxpresso_7.8.0_426/lpcxpresso/tools/bin/../lib/gcc/arm-none-eabi/4.9.3/../../../../arm-none-eabi/lib/libcr_c.a(fseek.o)
 .bss           0x40001acc        0x0 /usr/local/lpcxpresso_7.8.0_426/lpcxpresso/tools/bin/../lib/gcc/arm-none-eabi/4.9.3/../../../../arm-none-eabi/lib/libcr_c.a(ftell.o)
 .bss           0x40001acc        0x0 /usr/local/lpcxpresso_7.8.0_426/lpcxpresso/tools/bin/../lib/gcc/arm-none-eabi/4.9.3/../../../../arm-none-eabi/lib/libcr_c.a(initio.o)
 .bss           0x40001acc        0x0 /usr/local/lpcxpresso_7.8.0_426/lpcxpresso/tools/bin/../lib/gcc/arm-none-eabi/4.9.3/../../../../arm-none-eabi/lib/libcr_c.a(raise.o)
 .bss           0x40001acc        0x0 /usr/local/lpcxpresso_7.8.0_426/lpcxpresso/tools/bin/../lib/gcc/arm-none-eabi/4.9.3/../../../../arm-none-eabi/lib/libcr_c.a(setvbuf.o)
 .bss           0x40001acc        0x0 /usr/local/lpcxpresso_7.8.0_426/lpcxpresso/tools/bin/../lib/gcc/arm-none-eabi/4.9.3/../../../../arm-none-eabi/lib/libcr_c.a(_cr_check_heap.o)
 .bss           0x40001acc        0x0 /usr/local/lpcxpresso_7.8.0_426/lpcxpresso/tools/bin/../lib/gcc/arm-none-eabi/4.9.3/../../../../arm-none-eabi/lib/libcr_c.a(_fdopen.o)
 .bss           0x40001acc        0x0 /usr/local/lpcxpresso_7.8.0_426/lpcxpresso/tools/bin/../lib/gcc/arm-none-eabi/4.9.3/../../../../arm-none-eabi/lib/libcr_c.a(fclose.o)
 .bss           0x40001acc        0x0 /usr/local/lpcxpresso_7.8.0_426/lpcxpresso/tools/bin/../lib/gcc/arm-none-eabi/4.9.3/../../../../arm-none-eabi/lib/libcr_c.a(fflush.o)
 .bss           0x40001acc        0x0 /usr/local/lpcxpresso_7.8.0_426/lpcxpresso/tools/bin/../lib/gcc/arm-none-eabi/4.9.3/../../../../arm-none-eabi/lib/libcr_c.a(remove.o)
 .bss           0x40001acc        0x0 /usr/local/lpcxpresso_7.8.0_426/lpcxpresso/tools/bin/../lib/gcc/arm-none-eabi/4.9.3/../../../../arm-none-eabi/lib/libcr_c.a(_do_fflush.o)
 .bss           0x40001acc        0x0 /usr/local/lpcxpresso_7.8.0_426/lpcxpresso/tools/bin/../lib/gcc/arm-none-eabi/4.9.3/libcr_eabihelpers.a(double.o)
 .bss           0x40001acc        0x0 /usr/local/lpcxpresso_7.8.0_426/lpcxpresso/tools/bin/../lib/gcc/arm-none-eabi/4.9.3/libcr_eabihelpers.a(float.o)
 .bss           0x40001acc        0x0 /usr/local/lpcxpresso_7.8.0_426/lpcxpresso/tools/bin/../lib/gcc/arm-none-eabi/4.9.3/libcr_eabihelpers.a(helpers.o)
 .bss           0x40001acc        0x0 /usr/local/lpcxpresso_7.8.0_426/lpcxpresso/tools/bin/../lib/gcc/arm-none-eabi/4.9.3/libcr_eabihelpers.a(rtlib.o)
 .bss           0x40001acc        0x0 /usr/local/lpcxpresso_7.8.0_426/lpcxpresso/tools/bin/../lib/gcc/arm-none-eabi/4.9.3/../../../../arm-none-eabi/lib/libcr_nohost.a(__sys_appexit.o)
 .bss           0x40001acc        0x0 /usr/local/lpcxpresso_7.8.0_426/lpcxpresso/tools/bin/../lib/gcc/arm-none-eabi/4.9.3/../../../../arm-none-eabi/lib/libcr_nohost.a(__sys_close.o)
 .bss           0x40001acc        0x0 /usr/local/lpcxpresso_7.8.0_426/lpcxpresso/tools/bin/../lib/gcc/arm-none-eabi/4.9.3/../../../../arm-none-eabi/lib/libcr_nohost.a(__sys_flen.o)
 .bss           0x40001acc        0x0 /usr/local/lpcxpresso_7.8.0_426/lpcxpresso/tools/bin/../lib/gcc/arm-none-eabi/4.9.3/../../../../arm-none-eabi/lib/libcr_nohost.a(__sys_istty.o)
 .bss           0x40001acc        0x0 /usr/local/lpcxpresso_7.8.0_426/lpcxpresso/tools/bin/../lib/gcc/arm-none-eabi/4.9.3/../../../../arm-none-eabi/lib/libcr_nohost.a(__sys_read.o)
 .bss           0x40001acc        0x0 /usr/local/lpcxpresso_7.8.0_426/lpcxpresso/tools/bin/../lib/gcc/arm-none-eabi/4.9.3/../../../../arm-none-eabi/lib/libcr_nohost.a(__sys_readc.o)
 .bss           0x40001acc        0x0 /usr/local/lpcxpresso_7.8.0_426/lpcxpresso/tools/bin/../lib/gcc/arm-none-eabi/4.9.3/../../../../arm-none-eabi/lib/libcr_nohost.a(__sys_remove.o)
 .bss           0x40001acc        0x0 /usr/local/lpcxpresso_7.8.0_426/lpcxpresso/tools/bin/../lib/gcc/arm-none-eabi/4.9.3/../../../../arm-none-eabi/lib/libcr_nohost.a(__sys_rename.o)
 .bss           0x40001acc        0x0 /usr/local/lpcxpresso_7.8.0_426/lpcxpresso/tools/bin/../lib/gcc/arm-none-eabi/4.9.3/../../../../arm-none-eabi/lib/libcr_nohost.a(__sys_seek.o)
 .bss           0x40001acc        0x0 /usr/local/lpcxpresso_7.8.0_426/lpcxpresso/tools/bin/../lib/gcc/arm-none-eabi/4.9.3/../../../../arm-none-eabi/lib/libcr_nohost.a(__sys_tmpnam.o)
 .bss           0x40001acc        0x0 /usr/local/lpcxpresso_7.8.0_426/lpcxpresso/tools/bin/../lib/gcc/arm-none-eabi/4.9.3/../../../../arm-none-eabi/lib/libcr_nohost.a(__sys_write.o)
 *(COMMON)
 COMMON         0x40001acc      0xc88 ./src/Anybus.o
                0x40001acc                uartAnybus
                0x40001b10                signalSuspendAnybus
                0x40001b14                hma
                0x400020c0                uc_message_to_anybus
                0x400021c0                gsnpc
                0x400024f0                handleAnybusTxRx
 COMMON         0x40002754        0x4 ./src/I2C_Master.o
                0x40002754                ucLastCommandMandrino
                0x40002755                k
                0x40002756                ucLastCommandTaglio
                0x40002757                i2c_return_code
 COMMON         0x40002758       0xc0 ./src/az4186_can.o
                0x40002758                canregs
                0x40002768                canopen_init_seq
                0x40002778                canopen_rx_msg
                0x40002798                MsgBuf_TX2
                0x400027a8                MsgBuf_RX2
                0x400027b8                s_write_canopen_parameter_result
                0x400027bc                CAN1RxDone
                0x400027c0                MsgBuf_TX1
                0x400027d0                timeout_write_canopen_parameter
                0x400027d8                canopen_timer0
                0x400027e4                CAN2RxDone
                0x400027e8                CO
                0x400027ec                MsgBuf_RX1
                0x400027fc                s_write_canopen_parameter
                0x40002814                CANStatus
 COMMON         0x40002818       0x6c ./src/az4186_eeprom_24c04.o
                0x40002818                eeprom_queue
 COMMON         0x40002884       0x28 ./src/az4186_files.o
                0x40002884                ui_custom_string_read_error
                0x40002888                info_backup
 COMMON         0x400028ac      0x500 ./src/az4186_program_codes.o
                0x400028ac                hprg
                0x40002adc                scp
                0x40002b70                auxPrg
                0x40002c80                ui_handle_product_codes
                0x40002c84                spiralatrice
 COMMON         0x40002dac        0x8 ./src/az4186_temperature_compensation.o
                0x40002dac                ui_first_time_alarm_temperature_measure
                0x40002db0                ui_temperature_alarm_subcode
 COMMON         0x40002db4        0x4 ./src/az4186_window_temperature_compensation.o
                0x40002db4                ui_temperature_coefficient_per_million
 COMMON         0x40002db8       0x10 ./src/codelist.o
                0x40002db8                calcLimitRpm
 COMMON         0x40002dc8        0x6 ./src/diskio.o
                0x40002dc8                ucFlagsFileModified
 *fill*         0x40002dce        0x2 
 COMMON         0x40002dd0     0x2900 ./src/file_list.o
                0x40002dd0                body
                0x40002df0                bodyInfo
                0x40002dfc                walk
                0x40002e28                handle_file_list_registry
                0x400054ac                f_test
 COMMON         0x400056d0      0x670 ./src/gui.o
                0x400056d0                testoTouch
                0x40005718                infoImmagine
                0x4000571c                uiCoordXY_ok_rect_button
                0x4000589c                testoCallback
                0x400058e4                uiCoordXY_buttonCenter
                0x400059a4                LCD_Cursore
                0x400059b8                tableLcdId
                0x40005ab8                defaultTextSettings
                0x40005ac0                testoScrivi
                0x40005b08                testoPrintDefault
                0x40005b50                ucCalibraLcdInCorso
                0x40005b54                headTextOnDisplayQueue
                0x40005b60                lcdCal
                0x40005d08                uc1charString
                0x40005d0a                idxStringaTestoScrivi
                0x40005d0b                uc2charString
                0x40005d0e                kbdInterface
                0x40005d10                splashScreen
                0x40005d18                stringaTestoScrivi
 COMMON         0x40005d40       0x99 ./src/i2c.o
                0x40005d40                I2CReadLength
                0x40005d44                I2CSlaveBuffer
                0x40005d84                uc_i2c_device_signaling_nack_at_start
                0x40005d88                I2CMode
                0x40005d8c                I2CMasterBuffer
                0x40005dcc                I2CCmd
                0x40005dd0                ui_i2c_alarm_subcode
                0x40005dd4                I2CWriteLength
                0x40005dd8                uc_accessing_eeprom_private
 *fill*         0x40005dd9        0x3 
 COMMON         0x40005ddc      0x845 ./src/lcd.o
                0x40005ddc                dummyLcd
                0x40005de0                pParamsIcon
                0x40005de4                Params_Icon_Lista
                0x40005df4                LCD_Lista
                0x40006604                pBitmapLista
                0x40006608                pListLcd
                0x4000660c                ucRememberLcdIntActive
                0x4000660d                structLCD
                0x40006610                Bitmap_Lista
                0x4000661c                ul_count_timeout_lcd_int_active
                0x40006620                ucTouchScreen_unPressed
 *fill*         0x40006621        0x3 
 COMMON         0x40006624       0x38 ./src/main.o
                0x40006624                hti
                0x40006630                examineBootReset
                0x40006640                nextTime
                0x40006644                ucBooting
                0x40006648                time
                0x4000664c                ulWaitCycles
                0x40006650                firmwareVersion
 *fill*         0x4000665c        0x4 
 COMMON         0x40006660       0x48 ./src/mci.o
                0x40006660                vic_IntEnable
                0x40006664                cardInfo
                0x4000666c                CardRCA
                0x40006680                SD
                0x400066a4                MCI_CardType
 COMMON         0x400066a8      0x94d ./src/params.o
                0x400066a8                spsi
                0x400066b4                dist
                0x40006898                vdip_write
                0x40006cc0                distConversion
                0x40006ccc                ucMachineParsStatiGranted
                0x40006cd0                auxPrg_params
                0x40006de0                HRE
                0x40006e10                ucStringAuxParams
                0x40006e90                uc_the_byte_read_from_vdip
                0x40006e94                ulBoxSerialNumber
                0x40006e98                handleSaveParams
                0x40006fcc                read_vdip_bytes
 COMMON         0x40006ff5      0x105 ./src/popup.o
                0x40006ff5                ucStartLavorazione_enabled
                0x40006ff6                ucCountNumLoop2VisualizeMisuraStaticaIntaratura
                0x40006ff7                aie
                0x40006fff                hM
 *fill*         0x400070fa        0x2 
 COMMON         0x400070fc       0x44 ./src/rtcDS3231_newer.o
                0x400070fc                ucBytesRTC_DS3231
                0x4000710e                i2c_master_xmit_buf
                0x4000711c                rtc
                0x40007134                i2c_master_rcv_buf
 COMMON         0x40007140      0x785 ./src/spi.o
                0x40007140                hDist
                0x40007178                ui_act_dac_port_value
                0x4000717c                ulMinTrueRo
                0x40007180                fResTaraturaFine
                0x40007184                lcdRefreshTimeout
                0x40007198                ucMaxBadSpezzConsec
                0x40007199                ucReinitStatusBandella
                0x4000719a                AppenaAcceso
                0x4000719c                sLCD
                0x400074b8                ulMaxTrueRo
                0x400074bc                uiCountToVerifyHasBeenGetNewSample
                0x400074c0                SaveDate
                0x400074d0                ucActResCampioneSel
                0x400074d1                ucSaveMacParms
                0x400074d4                fMeanValueInputAnalogOnTaratura
                0x400074d8                handleBandella
                0x400074e8                actNumInAna
                0x400074ec                buttons
                0x4000766c                button_touched
                0x40007670                portataDinamica
                0x40007684                fResDeltaR
                0x40007688                ucNumErrNandFlash
                0x4000768c                fatfs
                0x400078c0                msgNow
                0x400078c4                ucActBadSpezzConsec
 *fill*         0x400078c5        0x3 
 COMMON         0x400078c8       0x7c ./src/spidbg.o
                0x400078c8                ucLinkEncoder
                0x400078cc                f_temperature_coefficient
                0x400078d0                hu
                0x400078d4                uiCursorePosY
                0x400078d8                ucCountLoopBeforeSaveSetup
                0x400078dc                lastRoNonCompensatoMain
                0x400078e4                ucMarkMemorizeSetup
                0x400078e8                uiCursorePosX
                0x400078ec                uc_calling_from_view_codice_prodotto
                0x400078f0                uiCursorePosXnoLin
                0x400078f4                ipm
                0x40007904                ucBloccaVisualizzazioneMisuraStatica
                0x40007905                ucHoldMisuraStatica
                0x40007908                hforn
                0x40007910                ucResetPiecesDone
                0x40007914                ui_super_user_password_cycle
                0x40007918                uc_super_user_password
                0x40007940                uiCursorePosYnoLin
 COMMON         0x40007944      0x64e ./src/spiglb.o
                0x40007944                password
                0x4000794a                TL1
                0x4000794b                SP
                0x4000794c                RunningPrgEndOk
                0x40007950                NextPrgAutomatic
                0x40007954                OV
                0x40007958                newEnc
                0x4000795a                actCan
                0x4000795b                actMenu
                0x4000795c                actMenuBck
                0x4000795d                RCAP2L
                0x40007960                WR
                0x40007964                TaglioAsincrono
                0x40007968                actFrizione
                0x4000796c                EX0
                0x40007970                outDigMis
                0x40007971                seg7Point
                0x40007974                RXD
                0x40007978                rxHasMsg
                0x4000797c                serRx
                0x400079e1                ADCSim1
                0x400079ec                PX1
                0x400079f0                oldEncMis
                0x400079f2                rtcBck
                0x400079f4                oldgapT
                0x400079f8                lastPzLenImp
                0x400079fc                TB8
                0x40007a00                targetLenImp
                0x40007a04                TF0
                0x40007a08                TMOD
                0x40007a0c                SM1
                0x40007a10                encVal
                0x40007a14                INT1
                0x40007a18                rdQueSpez
                0x40007a1c                txReqLocalCommessa
                0x40007a20                TempoLampada
                0x40007a24                outDigSim
                0x40007a25                DPH
                0x40007a28                watchDog
                0x40007a2c                checkPassw
                0x40007a30                ADCSim
                0x40007a34                isPressed
                0x40007a38                actRo
                0x40007a3c                updVel
                0x40007a40                AC
                0x40007a44                misStaVolt
                0x40007a48                misStaStatus
                0x40007a4c                parErr
                0x40007a50                impToMm
                0x40007a54                avvStatus
                0x40007a58                macParms
                0x40007c5c                P2
                0x40007c5d                TCON
                0x40007c5e                TR2
                0x40007c5f                TL0
                0x40007c60                impFromMis
                0x40007c64                actStaPortata
                0x40007c65                TH0
                0x40007c68                targetRes
                0x40007c6c                wrQueSpez
                0x40007c6e                myInpDig
                0x40007c70                minRo
                0x40007c74                serParms
                0x40007c78                IT1
                0x40007c7c                PX0
                0x40007c80                txBusy
                0x40007c84                TR1
                0x40007c88                T2CON
                0x40007c89                B
                0x40007c8c                REN
                0x40007c90                F0
                0x40007c94                alarms
                0x40007c98                act7segChar
                0x40007c9c                actSpezInPez
                0x40007ca0                DPL
                0x40007ca1                actFilo
                0x40007ca2                misStatus
                0x40007ca4                txNewPz
                0x40007ca8                avvSleep
                0x40007cac                RS0
                0x40007cb0                ACC
                0x40007cb1                PCON
                0x40007cb4                RS1
                0x40007cb8                PT1
                0x40007cbc                P0
                0x40007cc0                T0
                0x40007cc4                SCON
                0x40007cc5                TCLK
                0x40007cc6                oldEncLav
                0x40007cc8                chunkAvv
                0x40007ccc                oldnImpulsi
                0x40007cd0                impToUnit
                0x40007cd4                SBUF
                0x40007cd8                actSpezAvv
                0x40007cdc                backupAvvStatus
                0x40007ce0                CY
                0x40007ce4                upd7segSleep
                0x40007ce5                IE
                0x40007ce6                TH1
                0x40007ce7                RCAP2H
                0x40007ce8                newnImpulsi
                0x40007cec                inpDigSim
                0x40007cee                cntAvv
                0x40007cf0                txModCont
                0x40007cf4                nSpezDelay
                0x40007cf8                pTar
                0x40007cfc                PrgRunning
                0x40007d00                TI
                0x40007d04                gapImp
                0x40007d08                nomRo
                0x40007d0c                actSubmenuBck
                0x40007d0d                RCLK
                0x40007d10                edit
                0x40007da8                RB8
                0x40007dac                anticipoPretaglio
                0x40007dae                AlarmOnTimeout
                0x40007db0                IE0
                0x40007db4                EX1
                0x40007db8                parIsOdd
                0x40007dbc                ET0
                0x40007dc0                rtcYea
                0x40007dc4                urpToRes
                0x40007dc8                criticLav
                0x40007dcc                T1
                0x40007dd0                IP
                0x40007dd4                RI
                0x40007dd8                P3
                0x40007dd9                seg7ExtraSim
                0x40007dda                rtcDay
                0x40007ddb                rtcSec
                0x40007ddc                IE1
                0x40007de0                NumSpezzone
                0x40007de4                ADCStaSim
                0x40007de8                SM0
                0x40007dec                actSubmenu
                0x40007df0                resLastSpezUp
                0x40007df4                lastSubmenu
                0x40007dfc                resSta
                0x40007e00                checkedPassw
                0x40007e04                isEdit
                0x40007e08                preLenImp
                0x40007e0c                cntMis
                0x40007e10                PS
                0x40007e14                RD
                0x40007e18                ET1
                0x40007e1c                newgapT
                0x40007e20                criticMis
                0x40007e24                rtcHou
                0x40007e28                actCorrOhmica
                0x40007e2c                outDigVariable
                0x40007e30                ES
                0x40007e34                withMis
                0x40007e38                BitContaPezzi
                0x40007e3c                actPortata
                0x40007e3d                newpassw
                0x40007e44                TXD
                0x40007e48                LampStatus
                0x40007e49                alr_status
                0x40007e4a                rtcMin
                0x40007e4c                INT0
                0x40007e50                IT0
                0x40007e54                TR0
                0x40007e58                actLenImp
                0x40007e5c                kbEnabOut
                0x40007e5e                actNumPezzi
                0x40007e60                spezFilo
                0x40007e7c                PT0
                0x40007e80                lastPzRes
                0x40007e84                maxRo
                0x40007e88                str7seg
                0x40007e94                EA
                0x40007e98                actPreTime
                0x40007e99                misStaSleep
                0x40007e9a                PSW
                0x40007e9b                actTagTime
                0x40007e9c                TF1
                0x40007ea0                misSleep
                0x40007ea1                lastKeyPressed
                0x40007ea2                serTx
                0x40007f6c                SM2
                0x40007f70                myTI
                0x40007f74                act7segCol
                0x40007f78                P
                0x40007f7c                DACPortSim
                0x40007f7e                misDig
                0x40007f80                seg7DataSim
                0x40007f8c                actRes
                0x40007f90                rtcMon
                0x40007f91                kbDataSim
 *fill*         0x40007f92        0x2 
 COMMON         0x40007f94      0x704 ./src/spimis.o
                0x40007f94                ucAutoAD_NumOfLatch_var
                0x40007f95                ucMisuraDinamicaValidaSimulazione
                0x40007f98                iActCounts
                0x40007f9c                uc_reinit_ro_with_temperature_compensation
                0x40007fa0                plog
                0x40007fa4                pTaratura
                0x40007fa8                nimpu
                0x40007fac                outDigMis_Hi
                0x40007fb0                fArrayConvAD7327_Volts
                0x40007fd0                sensoreTaglio
                0x40008040                testRo_verify_tolerance
                0x40008044                i_compensated_ro
                0x40008048                numSampleRo
                0x4000804c                lastRoNonCompensato
                0x40008050                ui_requested_precut_after_spacing
                0x40008054                uiResultConvAd_Interrupt
                0x40008074                actDynPortata
                0x40008078                lastRo
                0x4000807c                uiNumLettureMisuraDinamica_Interrupt
                0x40008080                TPR
                0x400080ac                testRo
                0x400080b0                uiLetturaMisuraDinamica_Interrupt
                0x400080b4                iArrayConvAD7327
                0x400080d4                iOffsetCounts2
                0x400080d8                AccumRo
                0x400080dc                f_delay_wait_spacer_in_precut_position_pulses
                0x400080e0                stu
                0x400080f0                uiCntInterrupt
                0x400080f4                ro
                0x400080f8                ucCntInterrupt
                0x400080fc                iActCounts2
                0x40008100                CounterMisDig
                0x40008101                uc_requesting_i2c_bus
                0x40008104                ul_counter_interrupt_timer0
                0x40008108                ulContaMezzoGiro
                0x4000810c                handleWaitOneCoil
                0x40008118                production_log
                0x40008694                roPrec
 COMMON         0x40008698      0x648 ./src/spiutils.o
                0x40008698                tagliaMoncone_Imp
                0x4000869c                ui_stop_forced
                0x400086a0                his
                0x40008704                ui_goto_temperature_compensation_params_window
                0x40008708                paramsNumK
                0x40008750                ucEliminaPrimoPezzo
                0x40008754                InputAnalog
                0x40008774                uc_use_hexadecimal_letters
                0x40008778                his_privato
                0x400087dc                hw
                0x40008ccc                handle_wheel_inversion
 COMMON         0x40008ce0       0x88 ./src/spiwin2.o
                0x40008ce0                pJobsRunning_Jobs
                0x40008ce4                uc_after_ohm_m_fili_jump_to_enumWinId_Distanziatore
                0x40008ce5                happ
                0x40008ce6                ucSaveCodice_his
                0x40008cfc                uiNumValidationCodeList
                0x40008d00                handleCambioBoccola
                0x40008d04                pJobsSelected_Jobs
                0x40008d08                pJobsRunning
                0x40008d0c                privato_lavoro
                0x40008d64                pJobsSelected
 COMMON         0x40008d68      0x2f7 ./src/vdip.o
                0x40008d68                handleVdip
                0x40008d84                ucVdip_just2wait
                0x40008d85                uc_num_cr_found_by_receive_vdip
                0x40008d86                vdip_info
                0x40008fbe                ucStringRx_Vdip
                0x4000905e                uc_vdip_short_pause
 *fill*         0x4000905f        0x1 
 COMMON         0x40009060        0x4 ./ff9/src/ff.o
                0x40009060                FatFs
 COMMON         0x40009064        0xc ./CANopen_stack/LPC2388/CO_driver.o
                0x40009064                enable_CAN1callback
                0x40009068                ul_numof_unmatched_msg
                0x4000906c                enable_CAN2callback
 COMMON         0x40009070        0x8 ./CANopen_stack/CO_PDO.o
                0x40009070                ul_clock_at_last_rpdo
                0x40009074                ul_num_of_rpdo_rx
 COMMON         0x40009078      0x140 /usr/local/lpcxpresso_7.8.0_426/lpcxpresso/tools/bin/../lib/gcc/arm-none-eabi/4.9.3/../../../../arm-none-eabi/lib/libcr_c.a(stdio.o)
                0x40009078                __Ciob
 COMMON         0x400091b8       0x88 /usr/local/lpcxpresso_7.8.0_426/lpcxpresso/tools/bin/../lib/gcc/arm-none-eabi/4.9.3/../../../../arm-none-eabi/lib/libcr_c.a(stdlib.o)
                0x400091b8                _exitvector
                0x4000923c                _number_of_exit_functions
 COMMON         0x40009240        0x8 /usr/local/lpcxpresso_7.8.0_426/lpcxpresso/tools/bin/../lib/gcc/arm-none-eabi/4.9.3/../../../../arm-none-eabi/lib/libcr_c.a(__init_alloc.o)
                0x40009240                __heaps
                0x40009244                __end_of_heap
 COMMON         0x40009248        0x4 /usr/local/lpcxpresso_7.8.0_426/lpcxpresso/tools/bin/../lib/gcc/arm-none-eabi/4.9.3/../../../../arm-none-eabi/lib/libcr_c.a(initio.o)
                0x40009248                _extra
                0x4000924c                . = ALIGN (0x4)
                0x4000924c                _ebss = .
                0x4000924c                PROVIDE (end, .)

.noinit_RAM2    0x7fe00000        0x0
 *(.noinit.$RAM2*)
 *(.noinit.$RAM_ETH_16*)
                0x7fe00000                . = ALIGN (0x4)

.noinit_RAM3    0x7fd00000        0x0
 *(.noinit.$RAM3*)
 *(.noinit.$RAM_USB_16*)
                0x7fd00000                . = ALIGN (0x4)

.noinit_RAM4    0xe0084000        0x0
 *(.noinit.$RAM4*)
 *(.noinit.$RAM_RTC_2*)
                0xe0084000                . = ALIGN (0x4)

.noinit         0x4000924c        0x0
                0x4000924c                _noinit = .
 *(.noinit*)
                0x4000924c                . = ALIGN (0x4)
                0x4000924c                _end_noinit = .

._usrheap       0x4000924c     0x2000 load address 0x0005a74c
                0x4000924c                . = ALIGN (0x4)
                0x4000924c                _susrheap = .
                0x4000b24c                . = (. + _Minimum_Heap_Size)
 *fill*         0x4000924c     0x2000 
                0x4000b24c                . = ALIGN (0x4)
                0x4000b24c                _eusrheap = .

._usrstack      0x4000b24c      0xc00 load address 0x0005c74c
                0x4000b24c                . = ALIGN (0x4)
                0x4000b24c                _susrstack = .
                0x4000be4c                . = (. + _Minimum_Stack_Size)
 *fill*         0x4000b24c      0xc00 
                0x4000be4c                . = ALIGN (0x4)
                0x4000be4c                _eusrstack = .
                0x4000be4c                _estack = .

._AZ4186_NVRAM  0x81000000     0x1794
 *(AZ4186_NVRAM_SECTION)
 AZ4186_NVRAM_SECTION
                0x81000000     0x1794 ./src/spiglb.o
                0x81000000                nvram_struct
                0x4000924c                PROVIDE (_pvHeapStart, _susrheap)
                0x40010000                PROVIDE (_vStackTop, __top_Ram64)
OUTPUT(spiralatrice.axf elf32-littlearm)

.debug_info     0x00000000    0x538f7
 .debug_info    0x00000000     0x5d44 ./src/Anybus.o
 .debug_info    0x00005d44      0x3be ./src/I2C_Master.o
 .debug_info    0x00006102     0x2a86 ./src/az4186_can.o
 .debug_info    0x00008b88      0x1c1 ./src/az4186_dac.o
 .debug_info    0x00008d49     0x178f ./src/az4186_eeprom_24c04.o
 .debug_info    0x0000a4d8      0x76e ./src/az4186_emc.o
 .debug_info    0x0000ac46     0x1e3b ./src/az4186_files.o
 .debug_info    0x0000ca81      0x253 ./src/az4186_initHw.o
 .debug_info    0x0000ccd4     0x2599 ./src/az4186_program_codes.o
 .debug_info    0x0000f26d      0xfb8 ./src/az4186_temperature_compensation.o
 .debug_info    0x00010225     0x16fd ./src/az4186_window_temperature_compensation.o
 .debug_info    0x00011922     0x2226 ./src/codelist.o
 .debug_info    0x00013b48       0x3f ./src/crp.o
 .debug_info    0x00013b87      0xd74 ./src/diskio.o
 .debug_info    0x000148fb       0xdf ./src/dma.o
 .debug_info    0x000149da      0x163 ./src/fat_time.o
 .debug_info    0x00014b3d     0x2011 ./src/file_list.o
 .debug_info    0x00016b4e     0x2c32 ./src/gui.o
 .debug_info    0x00019780      0x6a2 ./src/i2c.o
 .debug_info    0x00019e22      0x5a0 ./src/inverse_v1.o
 .debug_info    0x0001a3c2      0xa75 ./src/lcd.o
 .debug_info    0x0001ae37      0x6a5 ./src/main.o
 .debug_info    0x0001b4dc     0x1c7d ./src/mci.o
 .debug_info    0x0001d159     0x723e ./src/params.o
 .debug_info    0x00024397     0x3401 ./src/popup.o
 .debug_info    0x00027798      0x6f8 ./src/rtcDS3231_newer.o
 .debug_info    0x00027e90     0x4e1c ./src/spi.o
 .debug_info    0x0002ccac     0x7a61 ./src/spidbg.o
 .debug_info    0x0003470d     0x1835 ./src/spiglb.o
 .debug_info    0x00035f42     0x2dc1 ./src/spimis.o
 .debug_info    0x00038d03     0x6865 ./src/spiutils.o
 .debug_info    0x0003f568     0x6141 ./src/spiwin2.o
 .debug_info    0x000456a9       0xcb ./src/target.o
 .debug_info    0x00045774      0x88b ./src/vdip.o
 .debug_info    0x00045fff      0x243 ./src/xxtea.o
 .debug_info    0x00046242      0x165 ./ff9/src/option/ccsbcs.o
 .debug_info    0x000463a7       0x6f ./ff9/src/option/syscall.o
 .debug_info    0x00046416     0x324e ./ff9/src/ff.o
 .debug_info    0x00049664      0xbca ./CANopen_stack/LPC2388/CO_driver.o
 .debug_info    0x0004a22e      0xdb2 ./CANopen_stack/LPC2388/co_od.o
 .debug_info    0x0004afe0     0x1d90 ./CANopen_stack/CANopen.o
 .debug_info    0x0004cd70      0xde8 ./CANopen_stack/CO_Emergency.o
 .debug_info    0x0004db58      0xb44 ./CANopen_stack/CO_HBconsumer.o
 .debug_info    0x0004e69c      0x9b6 ./CANopen_stack/CO_NMT_Heartbeat.o
 .debug_info    0x0004f052     0x1d73 ./CANopen_stack/CO_PDO.o
 .debug_info    0x00050dc5      0xf02 ./CANopen_stack/CO_SDO.o
 .debug_info    0x00051cc7      0xe45 ./CANopen_stack/CO_SDOmaster.o
 .debug_info    0x00052b0c      0xdeb ./CANopen_stack/CO_SYNC.o

.debug_abbrev   0x00000000     0x8f82
 .debug_abbrev  0x00000000      0x667 ./src/Anybus.o
 .debug_abbrev  0x00000667      0x22b ./src/I2C_Master.o
 .debug_abbrev  0x00000892      0x4bb ./src/az4186_can.o
 .debug_abbrev  0x00000d4d      0x109 ./src/az4186_dac.o
 .debug_abbrev  0x00000e56      0x3a9 ./src/az4186_eeprom_24c04.o
 .debug_abbrev  0x000011ff      0x1d4 ./src/az4186_emc.o
 .debug_abbrev  0x000013d3      0x40d ./src/az4186_files.o
 .debug_abbrev  0x000017e0      0x12b ./src/az4186_initHw.o
 .debug_abbrev  0x0000190b      0x427 ./src/az4186_program_codes.o
 .debug_abbrev  0x00001d32      0x3c5 ./src/az4186_temperature_compensation.o
 .debug_abbrev  0x000020f7      0x331 ./src/az4186_window_temperature_compensation.o
 .debug_abbrev  0x00002428      0x39e ./src/codelist.o
 .debug_abbrev  0x000027c6       0x36 ./src/crp.o
 .debug_abbrev  0x000027fc      0x3a8 ./src/diskio.o
 .debug_abbrev  0x00002ba4       0xb9 ./src/dma.o
 .debug_abbrev  0x00002c5d       0xae ./src/fat_time.o
 .debug_abbrev  0x00002d0b      0x3fb ./src/file_list.o
 .debug_abbrev  0x00003106      0x51b ./src/gui.o
 .debug_abbrev  0x00003621      0x25f ./src/i2c.o
 .debug_abbrev  0x00003880      0x169 ./src/inverse_v1.o
 .debug_abbrev  0x000039e9      0x2bd ./src/lcd.o
 .debug_abbrev  0x00003ca6      0x229 ./src/main.o
 .debug_abbrev  0x00003ecf      0x37c ./src/mci.o
 .debug_abbrev  0x0000424b      0x5ec ./src/params.o
 .debug_abbrev  0x00004837      0x3fb ./src/popup.o
 .debug_abbrev  0x00004c32      0x1f5 ./src/rtcDS3231_newer.o
 .debug_abbrev  0x00004e27      0x5f9 ./src/spi.o
 .debug_abbrev  0x00005420      0x47b ./src/spidbg.o
 .debug_abbrev  0x0000589b      0x13b ./src/spiglb.o
 .debug_abbrev  0x000059d6      0x59d ./src/spimis.o
 .debug_abbrev  0x00005f73      0x5a2 ./src/spiutils.o
 .debug_abbrev  0x00006515      0x51d ./src/spiwin2.o
 .debug_abbrev  0x00006a32       0xa1 ./src/target.o
 .debug_abbrev  0x00006ad3      0x2ac ./src/vdip.o
 .debug_abbrev  0x00006d7f       0xd0 ./src/xxtea.o
 .debug_abbrev  0x00006e4f       0xab ./ff9/src/option/ccsbcs.o
 .debug_abbrev  0x00006efa       0x29 ./ff9/src/option/syscall.o
 .debug_abbrev  0x00006f23      0x35c ./ff9/src/ff.o
 .debug_abbrev  0x0000727f      0x345 ./CANopen_stack/LPC2388/CO_driver.o
 .debug_abbrev  0x000075c4      0x1d9 ./CANopen_stack/LPC2388/co_od.o
 .debug_abbrev  0x0000779d      0x2d6 ./CANopen_stack/CANopen.o
 .debug_abbrev  0x00007a73      0x2d3 ./CANopen_stack/CO_Emergency.o
 .debug_abbrev  0x00007d46      0x25d ./CANopen_stack/CO_HBconsumer.o
 .debug_abbrev  0x00007fa3      0x28e ./CANopen_stack/CO_NMT_Heartbeat.o
 .debug_abbrev  0x00008231      0x3ab ./CANopen_stack/CO_PDO.o
 .debug_abbrev  0x000085dc      0x3a1 ./CANopen_stack/CO_SDO.o
 .debug_abbrev  0x0000897d      0x2ef ./CANopen_stack/CO_SDOmaster.o
 .debug_abbrev  0x00008c6c      0x316 ./CANopen_stack/CO_SYNC.o

.debug_loc      0x00000000    0x1aeab
 .debug_loc     0x00000000     0x1a5f ./src/Anybus.o
 .debug_loc     0x00001a5f      0x16a ./src/I2C_Master.o
 .debug_loc     0x00001bc9      0xd2c ./src/az4186_can.o
 .debug_loc     0x000028f5       0xc1 ./src/az4186_dac.o
 .debug_loc     0x000029b6      0x993 ./src/az4186_eeprom_24c04.o
 .debug_loc     0x00003349      0x6b2 ./src/az4186_emc.o
 .debug_loc     0x000039fb      0xc24 ./src/az4186_files.o
 .debug_loc     0x0000461f       0xdb ./src/az4186_initHw.o
 .debug_loc     0x000046fa      0x736 ./src/az4186_program_codes.o
 .debug_loc     0x00004e30      0x511 ./src/az4186_temperature_compensation.o
 .debug_loc     0x00005341      0x1ef ./src/az4186_window_temperature_compensation.o
 .debug_loc     0x00005530      0x371 ./src/codelist.o
 .debug_loc     0x000058a1      0x41c ./src/diskio.o
 .debug_loc     0x00005cbd       0x58 ./src/dma.o
 .debug_loc     0x00005d15     0x13bb ./src/file_list.o
 .debug_loc     0x000070d0     0x135e ./src/gui.o
 .debug_loc     0x0000842e      0x146 ./src/i2c.o
 .debug_loc     0x00008574      0x7e9 ./src/inverse_v1.o
 .debug_loc     0x00008d5d      0x42f ./src/lcd.o
 .debug_loc     0x0000918c       0xf9 ./src/main.o
 .debug_loc     0x00009285      0xf2a ./src/mci.o
 .debug_loc     0x0000a1af     0x185b ./src/params.o
 .debug_loc     0x0000ba0a      0x5a2 ./src/popup.o
 .debug_loc     0x0000bfac      0x47a ./src/rtcDS3231_newer.o
 .debug_loc     0x0000c426     0x12b4 ./src/spi.o
 .debug_loc     0x0000d6da     0x119e ./src/spidbg.o
 .debug_loc     0x0000e878      0x435 ./src/spimis.o
 .debug_loc     0x0000ecad     0x237b ./src/spiutils.o
 .debug_loc     0x00011028      0xd38 ./src/spiwin2.o
 .debug_loc     0x00011d60       0x26 ./src/target.o
 .debug_loc     0x00011d86      0x3a0 ./src/vdip.o
 .debug_loc     0x00012126      0x3f3 ./src/xxtea.o
 .debug_loc     0x00012519       0xf5 ./ff9/src/option/ccsbcs.o
 .debug_loc     0x0001260e     0x3cba ./ff9/src/ff.o
 .debug_loc     0x000162c8      0x7b5 ./CANopen_stack/LPC2388/CO_driver.o
 .debug_loc     0x00016a7d      0x1cb ./CANopen_stack/LPC2388/co_od.o
 .debug_loc     0x00016c48      0x316 ./CANopen_stack/CANopen.o
 .debug_loc     0x00016f5e      0x9a0 ./CANopen_stack/CO_Emergency.o
 .debug_loc     0x000178fe      0x59a ./CANopen_stack/CO_HBconsumer.o
 .debug_loc     0x00017e98      0x3b3 ./CANopen_stack/CO_NMT_Heartbeat.o
 .debug_loc     0x0001824b     0x1441 ./CANopen_stack/CO_PDO.o
 .debug_loc     0x0001968c      0x9a8 ./CANopen_stack/CO_SDO.o
 .debug_loc     0x0001a034      0x843 ./CANopen_stack/CO_SDOmaster.o
 .debug_loc     0x0001a877      0x634 ./CANopen_stack/CO_SYNC.o

.debug_aranges  0x00000000     0x1d98
 .debug_aranges
                0x00000000      0x1d8 ./src/Anybus.o
 .debug_aranges
                0x000001d8       0x48 ./src/I2C_Master.o
 .debug_aranges
                0x00000220      0x148 ./src/az4186_can.o
 .debug_aranges
                0x00000368       0x40 ./src/az4186_dac.o
 .debug_aranges
                0x000003a8       0xb8 ./src/az4186_eeprom_24c04.o
 .debug_aranges
                0x00000460       0x38 ./src/az4186_emc.o
 .debug_aranges
                0x00000498       0xc0 ./src/az4186_files.o
 .debug_aranges
                0x00000558       0x50 ./src/az4186_initHw.o
 .debug_aranges
                0x000005a8       0xb0 ./src/az4186_program_codes.o
 .debug_aranges
                0x00000658       0x88 ./src/az4186_temperature_compensation.o
 .debug_aranges
                0x000006e0       0x30 ./src/az4186_window_temperature_compensation.o
 .debug_aranges
                0x00000710       0x40 ./src/codelist.o
 .debug_aranges
                0x00000750       0x18 ./src/crp.o
 .debug_aranges
                0x00000768       0x70 ./src/diskio.o
 .debug_aranges
                0x000007d8       0x30 ./src/dma.o
 .debug_aranges
                0x00000808       0x20 ./src/fat_time.o
 .debug_aranges
                0x00000828       0xa0 ./src/file_list.o
 .debug_aranges
                0x000008c8      0x1c0 ./src/gui.o
 .debug_aranges
                0x00000a88       0x88 ./src/i2c.o
 .debug_aranges
                0x00000b10       0x58 ./src/inverse_v1.o
 .debug_aranges
                0x00000b68       0xf8 ./src/lcd.o
 .debug_aranges
                0x00000c60       0x48 ./src/main.o
 .debug_aranges
                0x00000ca8      0x150 ./src/mci.o
 .debug_aranges
                0x00000df8      0x190 ./src/params.o
 .debug_aranges
                0x00000f88       0x68 ./src/popup.o
 .debug_aranges
                0x00000ff0       0x60 ./src/rtcDS3231_newer.o
 .debug_aranges
                0x00001050      0x218 ./src/spi.o
 .debug_aranges
                0x00001268       0xe0 ./src/spidbg.o
 .debug_aranges
                0x00001348       0x18 ./src/spiglb.o
 .debug_aranges
                0x00001360      0x130 ./src/spimis.o
 .debug_aranges
                0x00001490      0x1c0 ./src/spiutils.o
 .debug_aranges
                0x00001650      0x118 ./src/spiwin2.o
 .debug_aranges
                0x00001768       0x38 ./src/target.o
 .debug_aranges
                0x000017a0       0x70 ./src/vdip.o
 .debug_aranges
                0x00001810       0x28 ./src/xxtea.o
 .debug_aranges
                0x00001838       0x28 ./ff9/src/option/ccsbcs.o
 .debug_aranges
                0x00001860       0x18 ./ff9/src/option/syscall.o
 .debug_aranges
                0x00001878      0x170 ./ff9/src/ff.o
 .debug_aranges
                0x000019e8       0x90 ./CANopen_stack/LPC2388/CO_driver.o
 .debug_aranges
                0x00001a78       0x30 ./CANopen_stack/LPC2388/co_od.o
 .debug_aranges
                0x00001aa8       0x40 ./CANopen_stack/CANopen.o
 .debug_aranges
                0x00001ae8       0x58 ./CANopen_stack/CO_Emergency.o
 .debug_aranges
                0x00001b40       0x48 ./CANopen_stack/CO_HBconsumer.o
 .debug_aranges
                0x00001b88       0x40 ./CANopen_stack/CO_NMT_Heartbeat.o
 .debug_aranges
                0x00001bc8       0xa8 ./CANopen_stack/CO_PDO.o
 .debug_aranges
                0x00001c70       0x78 ./CANopen_stack/CO_SDO.o
 .debug_aranges
                0x00001ce8       0x60 ./CANopen_stack/CO_SDOmaster.o
 .debug_aranges
                0x00001d48       0x50 ./CANopen_stack/CO_SYNC.o

.debug_ranges   0x00000000     0x2578
 .debug_ranges  0x00000000      0x358 ./src/Anybus.o
 .debug_ranges  0x00000358       0x38 ./src/I2C_Master.o
 .debug_ranges  0x00000390      0x1a0 ./src/az4186_can.o
 .debug_ranges  0x00000530       0x30 ./src/az4186_dac.o
 .debug_ranges  0x00000560      0x108 ./src/az4186_eeprom_24c04.o
 .debug_ranges  0x00000668       0x80 ./src/az4186_emc.o
 .debug_ranges  0x000006e8       0xe0 ./src/az4186_files.o
 .debug_ranges  0x000007c8       0x40 ./src/az4186_initHw.o
 .debug_ranges  0x00000808       0xf0 ./src/az4186_program_codes.o
 .debug_ranges  0x000008f8       0x78 ./src/az4186_temperature_compensation.o
 .debug_ranges  0x00000970       0x68 ./src/az4186_window_temperature_compensation.o
 .debug_ranges  0x000009d8       0x30 ./src/codelist.o
 .debug_ranges  0x00000a08       0xa8 ./src/diskio.o
 .debug_ranges  0x00000ab0       0x20 ./src/dma.o
 .debug_ranges  0x00000ad0       0x10 ./src/fat_time.o
 .debug_ranges  0x00000ae0      0x100 ./src/file_list.o
 .debug_ranges  0x00000be0      0x218 ./src/gui.o
 .debug_ranges  0x00000df8       0x78 ./src/i2c.o
 .debug_ranges  0x00000e70       0x48 ./src/inverse_v1.o
 .debug_ranges  0x00000eb8       0xe8 ./src/lcd.o
 .debug_ranges  0x00000fa0       0x38 ./src/main.o
 .debug_ranges  0x00000fd8      0x140 ./src/mci.o
 .debug_ranges  0x00001118      0x1d0 ./src/params.o
 .debug_ranges  0x000012e8       0x70 ./src/popup.o
 .debug_ranges  0x00001358       0xa0 ./src/rtcDS3231_newer.o
 .debug_ranges  0x000013f8      0x2d0 ./src/spi.o
 .debug_ranges  0x000016c8      0x100 ./src/spidbg.o
 .debug_ranges  0x000017c8      0x178 ./src/spimis.o
 .debug_ranges  0x00001940      0x3f8 ./src/spiutils.o
 .debug_ranges  0x00001d38      0x140 ./src/spiwin2.o
 .debug_ranges  0x00001e78       0x28 ./src/target.o
 .debug_ranges  0x00001ea0       0x60 ./src/vdip.o
 .debug_ranges  0x00001f00       0x18 ./src/xxtea.o
 .debug_ranges  0x00001f18       0x18 ./ff9/src/option/ccsbcs.o
 .debug_ranges  0x00001f30      0x220 ./ff9/src/ff.o
 .debug_ranges  0x00002150       0xb0 ./CANopen_stack/LPC2388/CO_driver.o
 .debug_ranges  0x00002200       0x20 ./CANopen_stack/LPC2388/co_od.o
 .debug_ranges  0x00002220       0x30 ./CANopen_stack/CANopen.o
 .debug_ranges  0x00002250       0x48 ./CANopen_stack/CO_Emergency.o
 .debug_ranges  0x00002298       0x38 ./CANopen_stack/CO_HBconsumer.o
 .debug_ranges  0x000022d0       0x30 ./CANopen_stack/CO_NMT_Heartbeat.o
 .debug_ranges  0x00002300      0x118 ./CANopen_stack/CO_PDO.o
 .debug_ranges  0x00002418       0x98 ./CANopen_stack/CO_SDO.o
 .debug_ranges  0x000024b0       0x88 ./CANopen_stack/CO_SDOmaster.o
 .debug_ranges  0x00002538       0x40 ./CANopen_stack/CO_SYNC.o

.debug_macro    0x00000000     0xa1e4
 .debug_macro   0x00000000      0x35b ./src/Anybus.o
 .debug_macro   0x0000035b      0x850 ./src/Anybus.o
 .debug_macro   0x00000bab       0x10 ./src/Anybus.o
 .debug_macro   0x00000bbb      0x12d ./src/Anybus.o
 .debug_macro   0x00000ce8       0xa0 ./src/Anybus.o
 .debug_macro   0x00000d88       0xc4 ./src/Anybus.o
 .debug_macro   0x00000e4c       0x22 ./src/Anybus.o
 .debug_macro   0x00000e6e      0x16b ./src/Anybus.o
 .debug_macro   0x00000fd9       0x7c ./src/Anybus.o
 .debug_macro   0x00001055       0x16 ./src/Anybus.o
 .debug_macro   0x0000106b       0x64 ./src/Anybus.o
 .debug_macro   0x000010cf      0x207 ./src/Anybus.o
 .debug_macro   0x000012d6      0x5b2 ./src/Anybus.o
 .debug_macro   0x00001888      0x763 ./src/Anybus.o
 .debug_macro   0x00001feb       0xd1 ./src/Anybus.o
 .debug_macro   0x000020bc      0x10c ./src/Anybus.o
 .debug_macro   0x000021c8       0x10 ./src/Anybus.o
 .debug_macro   0x000021d8      0x249 ./src/Anybus.o
 .debug_macro   0x00002421       0xeb ./src/Anybus.o
 .debug_macro   0x0000250c       0x16 ./src/Anybus.o
 .debug_macro   0x00002522       0x16 ./src/Anybus.o
 .debug_macro   0x00002538       0x25 ./src/Anybus.o
 .debug_macro   0x0000255d       0x34 ./src/Anybus.o
 .debug_macro   0x00002591       0x1c ./src/Anybus.o
 .debug_macro   0x000025ad       0xdb ./src/Anybus.o
 .debug_macro   0x00002688      0x1ba ./src/Anybus.o
 .debug_macro   0x00002842      0x5e0 ./src/Anybus.o
 .debug_macro   0x00002e22       0x34 ./src/Anybus.o
 .debug_macro   0x00002e56      0x8b4 ./src/Anybus.o
 .debug_macro   0x0000370a       0x10 ./src/Anybus.o
 .debug_macro   0x0000371a       0x91 ./src/Anybus.o
 .debug_macro   0x000037ab       0xe7 ./src/Anybus.o
 .debug_macro   0x00003892       0x4d ./src/I2C_Master.o
 .debug_macro   0x000038df     0x197c ./src/I2C_Master.o
 .debug_macro   0x0000525b       0x1c ./src/I2C_Master.o
 .debug_macro   0x00005277       0xd0 ./src/I2C_Master.o
 .debug_macro   0x00005347       0x34 ./src/I2C_Master.o
 .debug_macro   0x0000537b      0x1eb ./src/az4186_can.o
 .debug_macro   0x00005566       0x9a ./src/az4186_can.o
 .debug_macro   0x00005600       0x16 ./src/az4186_can.o
 .debug_macro   0x00005616      0x124 ./src/az4186_can.o
 .debug_macro   0x0000573a      0x107 ./src/az4186_can.o
 .debug_macro   0x00005841       0x88 ./src/az4186_can.o
 .debug_macro   0x000058c9      0x263 ./src/az4186_can.o
 .debug_macro   0x00005b2c       0x49 ./src/az4186_can.o
 .debug_macro   0x00005b75      0x15a ./src/az4186_can.o
 .debug_macro   0x00005ccf       0x78 ./src/az4186_can.o
 .debug_macro   0x00005d47       0x5d ./src/az4186_dac.o
 .debug_macro   0x00005da4      0x192 ./src/az4186_eeprom_24c04.o
 .debug_macro   0x00005f36       0xed ./src/az4186_emc.o
 .debug_macro   0x00006023       0x28 ./src/az4186_emc.o
 .debug_macro   0x0000604b      0x1eb ./src/az4186_files.o
 .debug_macro   0x00006236      0x1e6 ./src/az4186_files.o
 .debug_macro   0x0000641c       0x3a ./src/az4186_files.o
 .debug_macro   0x00006456       0x10 ./src/az4186_files.o
 .debug_macro   0x00006466       0x2e ./src/az4186_files.o
 .debug_macro   0x00006494       0x93 ./src/az4186_initHw.o
 .debug_macro   0x00006527      0x16f ./src/az4186_program_codes.o
 .debug_macro   0x00006696       0xee ./src/az4186_program_codes.o
 .debug_macro   0x00006784      0x1ea ./src/az4186_temperature_compensation.o
 .debug_macro   0x0000696e      0x1e5 ./src/az4186_window_temperature_compensation.o
 .debug_macro   0x00006b53      0x1f8 ./src/codelist.o
 .debug_macro   0x00006d4b       0x1a ./src/crp.o
 .debug_macro   0x00006d65       0x34 ./src/crp.o
 .debug_macro   0x00006d99      0x1ad ./src/diskio.o
 .debug_macro   0x00006f46       0x10 ./src/diskio.o
 .debug_macro   0x00006f56       0x82 ./src/diskio.o
 .debug_macro   0x00006fd8       0x4d ./src/dma.o
 .debug_macro   0x00007025       0xb0 ./src/fat_time.o
 .debug_macro   0x000070d5       0xd7 ./src/file_list.o
 .debug_macro   0x000071ac       0x94 ./src/file_list.o
 .debug_macro   0x00007240      0x1d9 ./src/gui.o
 .debug_macro   0x00007419      0x105 ./src/i2c.o
 .debug_macro   0x0000751e       0x17 ./src/inverse_v1.o
 .debug_macro   0x00007535       0xf0 ./src/lcd.o
 .debug_macro   0x00007625      0x1c8 ./src/main.o
 .debug_macro   0x000077ed       0x80 ./src/mci.o
 .debug_macro   0x0000786d      0x45e ./src/params.o
 .debug_macro   0x00007ccb      0x2ac ./src/popup.o
 .debug_macro   0x00007f77       0x8c ./src/rtcDS3231_newer.o
 .debug_macro   0x00008003      0x2d6 ./src/spi.o
 .debug_macro   0x000082d9      0x5bb ./src/spidbg.o
 .debug_macro   0x00008894       0xdf ./src/spiglb.o
 .debug_macro   0x00008973      0x1a1 ./src/spimis.o
 .debug_macro   0x00008b14      0x2f3 ./src/spiutils.o
 .debug_macro   0x00008e07      0x473 ./src/spiwin2.o
 .debug_macro   0x0000927a       0x35 ./src/target.o
 .debug_macro   0x000092af      0x14f ./src/vdip.o
 .debug_macro   0x000093fe      0x1d1 ./src/xxtea.o
 .debug_macro   0x000095cf       0x42 ./ff9/src/option/ccsbcs.o
 .debug_macro   0x00009611       0x67 ./ff9/src/option/syscall.o
 .debug_macro   0x00009678      0x2c5 ./ff9/src/ff.o
 .debug_macro   0x0000993d       0x7c ./ff9/src/ff.o
 .debug_macro   0x000099b9       0xcc ./CANopen_stack/LPC2388/CO_driver.o
 .debug_macro   0x00009a85       0xa7 ./CANopen_stack/LPC2388/co_od.o
 .debug_macro   0x00009b2c       0x82 ./CANopen_stack/LPC2388/co_od.o
 .debug_macro   0x00009bae      0x197 ./CANopen_stack/CANopen.o
 .debug_macro   0x00009d45       0xa3 ./CANopen_stack/CO_Emergency.o
 .debug_macro   0x00009de8       0xac ./CANopen_stack/CO_HBconsumer.o
 .debug_macro   0x00009e94       0xa2 ./CANopen_stack/CO_NMT_Heartbeat.o
 .debug_macro   0x00009f36       0xb6 ./CANopen_stack/CO_PDO.o
 .debug_macro   0x00009fec       0xb2 ./CANopen_stack/CO_SDO.o
 .debug_macro   0x0000a09e       0x9a ./CANopen_stack/CO_SDOmaster.o
 .debug_macro   0x0000a138       0xac ./CANopen_stack/CO_SYNC.o

.debug_line     0x00000000    0x11990
 .debug_line    0x00000000      0xed2 ./src/Anybus.o
 .debug_line    0x00000ed2      0x180 ./src/I2C_Master.o
 .debug_line    0x00001052      0x895 ./src/az4186_can.o
 .debug_line    0x000018e7      0x10d ./src/az4186_dac.o
 .debug_line    0x000019f4      0x558 ./src/az4186_eeprom_24c04.o
 .debug_line    0x00001f4c      0x2c2 ./src/az4186_emc.o
 .debug_line    0x0000220e      0x5b6 ./src/az4186_files.o
 .debug_line    0x000027c4      0x268 ./src/az4186_initHw.o
 .debug_line    0x00002a2c      0x60e ./src/az4186_program_codes.o
 .debug_line    0x0000303a      0x59d ./src/az4186_temperature_compensation.o
 .debug_line    0x000035d7      0x41d ./src/az4186_window_temperature_compensation.o
 .debug_line    0x000039f4      0x450 ./src/codelist.o
 .debug_line    0x00003e44       0x7c ./src/crp.o
 .debug_line    0x00003ec0      0x449 ./src/diskio.o
 .debug_line    0x00004309      0x119 ./src/dma.o
 .debug_line    0x00004422      0x1c1 ./src/fat_time.o
 .debug_line    0x000045e3      0x614 ./src/file_list.o
 .debug_line    0x00004bf7      0xc6d ./src/gui.o
 .debug_line    0x00005864      0x3f0 ./src/i2c.o
 .debug_line    0x00005c54      0x171 ./src/inverse_v1.o
 .debug_line    0x00005dc5      0x471 ./src/lcd.o
 .debug_line    0x00006236      0x3fb ./src/main.o
 .debug_line    0x00006631      0x723 ./src/mci.o
 .debug_line    0x00006d54     0x126a ./src/params.o
 .debug_line    0x00007fbe      0x654 ./src/popup.o
 .debug_line    0x00008612      0x2a1 ./src/rtcDS3231_newer.o
 .debug_line    0x000088b3     0x10e3 ./src/spi.o
 .debug_line    0x00009996     0x10be ./src/spidbg.o
 .debug_line    0x0000aa54      0x21b ./src/spiglb.o
 .debug_line    0x0000ac6f      0xb65 ./src/spimis.o
 .debug_line    0x0000b7d4     0x1229 ./src/spiutils.o
 .debug_line    0x0000c9fd      0xdd5 ./src/spiwin2.o
 .debug_line    0x0000d7d2      0x125 ./src/target.o
 .debug_line    0x0000d8f7      0x488 ./src/vdip.o
 .debug_line    0x0000dd7f      0x3d5 ./src/xxtea.o
 .debug_line    0x0000e154       0xfa ./ff9/src/option/ccsbcs.o
 .debug_line    0x0000e24e      0x176 ./ff9/src/option/syscall.o
 .debug_line    0x0000e3c4      0xe94 ./ff9/src/ff.o
 .debug_line    0x0000f258      0x409 ./CANopen_stack/LPC2388/CO_driver.o
 .debug_line    0x0000f661      0x231 ./CANopen_stack/LPC2388/co_od.o
 .debug_line    0x0000f892      0x34e ./CANopen_stack/CANopen.o
 .debug_line    0x0000fbe0      0x3a1 ./CANopen_stack/CO_Emergency.o
 .debug_line    0x0000ff81      0x36e ./CANopen_stack/CO_HBconsumer.o
 .debug_line    0x000102ef      0x36e ./CANopen_stack/CO_NMT_Heartbeat.o
 .debug_line    0x0001065d      0x6d5 ./CANopen_stack/CO_PDO.o
 .debug_line    0x00010d32      0x464 ./CANopen_stack/CO_SDO.o
 .debug_line    0x00011196      0x49f ./CANopen_stack/CO_SDOmaster.o
 .debug_line    0x00011635      0x35b ./CANopen_stack/CO_SYNC.o

.debug_str      0x00000000    0x3a4cf
 .debug_str     0x00000000    0x12688 ./src/Anybus.o
                              0x12e6b (size before relaxing)
 .debug_str     0x00012688     0xe805 ./src/I2C_Master.o
                              0x132e6 (size before relaxing)
 .debug_str     0x00020e8d     0x3907 ./src/az4186_can.o
                              0x1d898 (size before relaxing)
 .debug_str     0x00024794      0x236 ./src/az4186_dac.o
                              0x11be1 (size before relaxing)
 .debug_str     0x000249ca      0x9aa ./src/az4186_eeprom_24c04.o
                              0x182d3 (size before relaxing)
 .debug_str     0x00025374      0x2fb ./src/az4186_emc.o
                              0x129f7 (size before relaxing)
 .debug_str     0x0002566f     0x126c ./src/az4186_files.o
                              0x178cc (size before relaxing)
 .debug_str     0x000268db      0x12e ./src/az4186_initHw.o
                              0x12837 (size before relaxing)
 .debug_str     0x00026a09     0x10cc ./src/az4186_program_codes.o
                              0x18d58 (size before relaxing)
 .debug_str     0x00027ad5      0x893 ./src/az4186_temperature_compensation.o
                              0x1cf6b (size before relaxing)
 .debug_str     0x00028368      0x993 ./src/az4186_window_temperature_compensation.o
                               0xd939 (size before relaxing)
 .debug_str     0x00028cfb      0x8a2 ./src/codelist.o
                               0xe34f (size before relaxing)
 .debug_str     0x0002959d       0xe9 ./src/crp.o
                               0x2495 (size before relaxing)
 .debug_str     0x00029686      0x9bc ./src/diskio.o
                              0x16fed (size before relaxing)
 .debug_str     0x0002a042       0x52 ./src/dma.o
                              0x11568 (size before relaxing)
 .debug_str     0x0002a094       0x1e ./src/fat_time.o
                              0x11e66 (size before relaxing)
 .debug_str     0x0002a0b2      0x7d3 ./src/file_list.o
                              0x1393a (size before relaxing)
 .debug_str     0x0002a885     0x1617 ./src/gui.o
                               0xd15d (size before relaxing)
 .debug_str     0x0002be9c      0x303 ./src/i2c.o
                              0x171de (size before relaxing)
 .debug_str     0x0002c19f      0x1b1 ./src/inverse_v1.o
                               0x25ca (size before relaxing)
 .debug_str     0x0002c350      0x534 ./src/lcd.o
                               0x511b (size before relaxing)
 .debug_str     0x0002c884      0x280 ./src/main.o
                              0x185a9 (size before relaxing)
 .debug_str     0x0002cb04      0x937 ./src/mci.o
                              0x139c4 (size before relaxing)
 .debug_str     0x0002d43b     0x26a8 ./src/params.o
                              0x11e56 (size before relaxing)
 .debug_str     0x0002fae3      0xc1d ./src/popup.o
                               0xfc57 (size before relaxing)
 .debug_str     0x00030700       0xa1 ./src/rtcDS3231_newer.o
                              0x11641 (size before relaxing)
 .debug_str     0x000307a1     0x1edf ./src/spi.o
                              0x207a9 (size before relaxing)
 .debug_str     0x00032680     0x2b4e ./src/spidbg.o
                              0x21b72 (size before relaxing)
 .debug_str     0x000351ce      0x1b1 ./src/spiglb.o
                               0x9103 (size before relaxing)
 .debug_str     0x0003537f      0xb34 ./src/spimis.o
                              0x1c048 (size before relaxing)
 .debug_str     0x00035eb3      0xd03 ./src/spiutils.o
                              0x201c8 (size before relaxing)
 .debug_str     0x00036bb6     0x1556 ./src/spiwin2.o
                              0x20434 (size before relaxing)
 .debug_str     0x0003810c       0x44 ./src/target.o
                              0x10c17 (size before relaxing)
 .debug_str     0x00038150      0x3bc ./src/vdip.o
                              0x16d99 (size before relaxing)
 .debug_str     0x0003850c      0x108 ./src/xxtea.o
                               0xbf9f (size before relaxing)
 .debug_str     0x00038614       0x50 ./ff9/src/option/ccsbcs.o
                               0x29a1 (size before relaxing)
 .debug_str     0x00038664       0x1c ./ff9/src/option/syscall.o
                               0x2f3e (size before relaxing)
 .debug_str     0x00038680      0xac4 ./ff9/src/ff.o
                              0x11e0b (size before relaxing)
 .debug_str     0x00039144      0x2ba ./CANopen_stack/LPC2388/CO_driver.o
                              0x13e63 (size before relaxing)
 .debug_str     0x000393fe      0x2e5 ./CANopen_stack/LPC2388/co_od.o
                               0x4a08 (size before relaxing)
 .debug_str     0x000396e3      0x630 ./CANopen_stack/CANopen.o
                               0x6017 (size before relaxing)
 .debug_str     0x00039d13      0x13a ./CANopen_stack/CO_Emergency.o
                               0x41f3 (size before relaxing)
 .debug_str     0x00039e4d       0xda ./CANopen_stack/CO_HBconsumer.o
                               0x4455 (size before relaxing)
 .debug_str     0x00039f27       0xa4 ./CANopen_stack/CO_NMT_Heartbeat.o
                               0x4391 (size before relaxing)
 .debug_str     0x00039fcb      0x2ae ./CANopen_stack/CO_PDO.o
                               0x48b4 (size before relaxing)
 .debug_str     0x0003a279       0x8f ./CANopen_stack/CO_SDO.o
                               0x3a08 (size before relaxing)
 .debug_str     0x0003a308       0xbc ./CANopen_stack/CO_SDOmaster.o
                               0x3a9e (size before relaxing)
 .debug_str     0x0003a3c4      0x10b ./CANopen_stack/CO_SYNC.o
                               0x4443 (size before relaxing)

.comment        0x00000000       0xe0
 .comment       0x00000000       0x70 ./src/Anybus.o
                                 0x71 (size before relaxing)
 .comment       0x00000000       0x71 ./src/I2C_Master.o
 .comment       0x00000000       0x71 ./src/az4186_can.o
 .comment       0x00000000       0x71 ./src/az4186_dac.o
 .comment       0x00000000       0x71 ./src/az4186_eeprom_24c04.o
 .comment       0x00000000       0x71 ./src/az4186_emc.o
 .comment       0x00000000       0x71 ./src/az4186_files.o
 .comment       0x00000000       0x71 ./src/az4186_initHw.o
 .comment       0x00000000       0x71 ./src/az4186_program_codes.o
 .comment       0x00000000       0x71 ./src/az4186_temperature_compensation.o
 .comment       0x00000000       0x71 ./src/az4186_window_temperature_compensation.o
 .comment       0x00000000       0x71 ./src/codelist.o
 .comment       0x00000000       0x71 ./src/crp.o
 .comment       0x00000000       0x71 ./src/diskio.o
 .comment       0x00000000       0x71 ./src/dma.o
 .comment       0x00000000       0x71 ./src/fat_time.o
 .comment       0x00000000       0x71 ./src/file_list.o
 .comment       0x00000000       0x71 ./src/gui.o
 .comment       0x00000000       0x71 ./src/i2c.o
 .comment       0x00000000       0x71 ./src/inverse_v1.o
 .comment       0x00000000       0x71 ./src/lcd.o
 .comment       0x00000000       0x71 ./src/main.o
 .comment       0x00000000       0x71 ./src/mci.o
 .comment       0x00000000       0x71 ./src/params.o
 .comment       0x00000000       0x71 ./src/popup.o
 .comment       0x00000000       0x71 ./src/rtcDS3231_newer.o
 .comment       0x00000000       0x71 ./src/spi.o
 .comment       0x00000000       0x71 ./src/spidbg.o
 .comment       0x00000000       0x71 ./src/spiglb.o
 .comment       0x00000000       0x71 ./src/spimis.o
 .comment       0x00000000       0x71 ./src/spiutils.o
 .comment       0x00000000       0x71 ./src/spiwin2.o
 .comment       0x00000000       0x71 ./src/target.o
 .comment       0x00000000       0x71 ./src/vdip.o
 .comment       0x00000000       0x71 ./src/xxtea.o
 .comment       0x00000000       0x71 ./ff9/src/option/ccsbcs.o
 .comment       0x00000000       0x71 ./ff9/src/option/syscall.o
 .comment       0x00000000       0x71 ./ff9/src/ff.o
 .comment       0x00000000       0x71 ./CANopen_stack/LPC2388/CO_driver.o
 .comment       0x00000000       0x71 ./CANopen_stack/LPC2388/co_od.o
 .comment       0x00000000       0x71 ./CANopen_stack/CANopen.o
 .comment       0x00000000       0x71 ./CANopen_stack/CO_Emergency.o
 .comment       0x00000000       0x71 ./CANopen_stack/CO_HBconsumer.o
 .comment       0x00000000       0x71 ./CANopen_stack/CO_NMT_Heartbeat.o
 .comment       0x00000000       0x71 ./CANopen_stack/CO_PDO.o
 .comment       0x00000000       0x71 ./CANopen_stack/CO_SDO.o
 .comment       0x00000000       0x71 ./CANopen_stack/CO_SDOmaster.o
 .comment       0x00000000       0x71 ./CANopen_stack/CO_SYNC.o
 .comment       0x00000070       0x70 /usr/local/lpcxpresso_7.8.0_426/lpcxpresso/tools/bin/../lib/gcc/arm-none-eabi/4.9.3/../../../../arm-none-eabi/lib/libcr_c.a(memcpy.o)
                                 0x71 (size before relaxing)
 .comment       0x00000000       0x71 /usr/local/lpcxpresso_7.8.0_426/lpcxpresso/tools/bin/../lib/gcc/arm-none-eabi/4.9.3/../../../../arm-none-eabi/lib/libcr_c.a(memset.o)
 .comment       0x00000000       0x71 /usr/local/lpcxpresso_7.8.0_426/lpcxpresso/tools/bin/../lib/gcc/arm-none-eabi/4.9.3/../../../../arm-none-eabi/lib/libcr_c.a(alloc.o)
 .comment       0x00000000       0x71 /usr/local/lpcxpresso_7.8.0_426/lpcxpresso/tools/bin/../lib/gcc/arm-none-eabi/4.9.3/../../../../arm-none-eabi/lib/libcr_c.a(ctype.o)
 .comment       0x00000000       0x71 /usr/local/lpcxpresso_7.8.0_426/lpcxpresso/tools/bin/../lib/gcc/arm-none-eabi/4.9.3/../../../../arm-none-eabi/lib/libcr_c.a(fabs.o)
 .comment       0x00000000       0x71 /usr/local/lpcxpresso_7.8.0_426/lpcxpresso/tools/bin/../lib/gcc/arm-none-eabi/4.9.3/../../../../arm-none-eabi/lib/libcr_c.a(fpprintf.o)
 .comment       0x00000000       0x71 /usr/local/lpcxpresso_7.8.0_426/lpcxpresso/tools/bin/../lib/gcc/arm-none-eabi/4.9.3/../../../../arm-none-eabi/lib/libcr_c.a(memcmp.o)
 .comment       0x00000000       0x71 /usr/local/lpcxpresso_7.8.0_426/lpcxpresso/tools/bin/../lib/gcc/arm-none-eabi/4.9.3/../../../../arm-none-eabi/lib/libcr_c.a(printf.o)
 .comment       0x00000000       0x71 /usr/local/lpcxpresso_7.8.0_426/lpcxpresso/tools/bin/../lib/gcc/arm-none-eabi/4.9.3/../../../../arm-none-eabi/lib/libcr_c.a(scanf.o)
 .comment       0x00000000       0x71 /usr/local/lpcxpresso_7.8.0_426/lpcxpresso/tools/bin/../lib/gcc/arm-none-eabi/4.9.3/../../../../arm-none-eabi/lib/libcr_c.a(stdio.o)
 .comment       0x00000000       0x71 /usr/local/lpcxpresso_7.8.0_426/lpcxpresso/tools/bin/../lib/gcc/arm-none-eabi/4.9.3/../../../../arm-none-eabi/lib/libcr_c.a(stdlib.o)
 .comment       0x00000000       0x71 /usr/local/lpcxpresso_7.8.0_426/lpcxpresso/tools/bin/../lib/gcc/arm-none-eabi/4.9.3/../../../../arm-none-eabi/lib/libcr_c.a(strcat.o)
 .comment       0x00000000       0x71 /usr/local/lpcxpresso_7.8.0_426/lpcxpresso/tools/bin/../lib/gcc/arm-none-eabi/4.9.3/../../../../arm-none-eabi/lib/libcr_c.a(strchr.o)
 .comment       0x00000000       0x71 /usr/local/lpcxpresso_7.8.0_426/lpcxpresso/tools/bin/../lib/gcc/arm-none-eabi/4.9.3/../../../../arm-none-eabi/lib/libcr_c.a(strcmp.o)
 .comment       0x00000000       0x71 /usr/local/lpcxpresso_7.8.0_426/lpcxpresso/tools/bin/../lib/gcc/arm-none-eabi/4.9.3/../../../../arm-none-eabi/lib/libcr_c.a(strcpy.o)
 .comment       0x00000000       0x71 /usr/local/lpcxpresso_7.8.0_426/lpcxpresso/tools/bin/../lib/gcc/arm-none-eabi/4.9.3/../../../../arm-none-eabi/lib/libcr_c.a(strlen.o)
 .comment       0x00000000       0x71 /usr/local/lpcxpresso_7.8.0_426/lpcxpresso/tools/bin/../lib/gcc/arm-none-eabi/4.9.3/../../../../arm-none-eabi/lib/libcr_c.a(strncat.o)
 .comment       0x00000000       0x71 /usr/local/lpcxpresso_7.8.0_426/lpcxpresso/tools/bin/../lib/gcc/arm-none-eabi/4.9.3/../../../../arm-none-eabi/lib/libcr_c.a(strncmp.o)
 .comment       0x00000000       0x71 /usr/local/lpcxpresso_7.8.0_426/lpcxpresso/tools/bin/../lib/gcc/arm-none-eabi/4.9.3/../../../../arm-none-eabi/lib/libcr_c.a(strncpy.o)
 .comment       0x00000000       0x71 /usr/local/lpcxpresso_7.8.0_426/lpcxpresso/tools/bin/../lib/gcc/arm-none-eabi/4.9.3/../../../../arm-none-eabi/lib/libcr_c.a(strstr.o)
 .comment       0x00000000       0x71 /usr/local/lpcxpresso_7.8.0_426/lpcxpresso/tools/bin/../lib/gcc/arm-none-eabi/4.9.3/../../../../arm-none-eabi/lib/libcr_c.a(ungetc.o)
 .comment       0x00000000       0x71 /usr/local/lpcxpresso_7.8.0_426/lpcxpresso/tools/bin/../lib/gcc/arm-none-eabi/4.9.3/../../../../arm-none-eabi/lib/libcr_c.a(__fillbuf.o)
 .comment       0x00000000       0x71 /usr/local/lpcxpresso_7.8.0_426/lpcxpresso/tools/bin/../lib/gcc/arm-none-eabi/4.9.3/../../../../arm-none-eabi/lib/libcr_c.a(__init_alloc.o)
 .comment       0x00000000       0x71 /usr/local/lpcxpresso_7.8.0_426/lpcxpresso/tools/bin/../lib/gcc/arm-none-eabi/4.9.3/../../../../arm-none-eabi/lib/libcr_c.a(_cr_sbrk.o)
 .comment       0x00000000       0x71 /usr/local/lpcxpresso_7.8.0_426/lpcxpresso/tools/bin/../lib/gcc/arm-none-eabi/4.9.3/../../../../arm-none-eabi/lib/libcr_c.a(_deferredlazyseek.o)
 .comment       0x00000000       0x71 /usr/local/lpcxpresso_7.8.0_426/lpcxpresso/tools/bin/../lib/gcc/arm-none-eabi/4.9.3/../../../../arm-none-eabi/lib/libcr_c.a(_fflush.o)
 .comment       0x00000000       0x71 /usr/local/lpcxpresso_7.8.0_426/lpcxpresso/tools/bin/../lib/gcc/arm-none-eabi/4.9.3/../../../../arm-none-eabi/lib/libcr_c.a(_frexpl.o)
 .comment       0x00000000       0x71 /usr/local/lpcxpresso_7.8.0_426/lpcxpresso/tools/bin/../lib/gcc/arm-none-eabi/4.9.3/../../../../arm-none-eabi/lib/libcr_c.a(_hugeval.o)
 .comment       0x00000000       0x71 /usr/local/lpcxpresso_7.8.0_426/lpcxpresso/tools/bin/../lib/gcc/arm-none-eabi/4.9.3/../../../../arm-none-eabi/lib/libcr_c.a(_ldexpl.o)
 .comment       0x00000000       0x71 /usr/local/lpcxpresso_7.8.0_426/lpcxpresso/tools/bin/../lib/gcc/arm-none-eabi/4.9.3/../../../../arm-none-eabi/lib/libcr_c.a(_writebuf.o)
 .comment       0x00000000       0x71 /usr/local/lpcxpresso_7.8.0_426/lpcxpresso/tools/bin/../lib/gcc/arm-none-eabi/4.9.3/../../../../arm-none-eabi/lib/libcr_c.a(errno.o)
 .comment       0x00000000       0x71 /usr/local/lpcxpresso_7.8.0_426/lpcxpresso/tools/bin/../lib/gcc/arm-none-eabi/4.9.3/../../../../arm-none-eabi/lib/libcr_c.a(fseek.o)
 .comment       0x00000000       0x71 /usr/local/lpcxpresso_7.8.0_426/lpcxpresso/tools/bin/../lib/gcc/arm-none-eabi/4.9.3/../../../../arm-none-eabi/lib/libcr_c.a(ftell.o)
 .comment       0x00000000       0x71 /usr/local/lpcxpresso_7.8.0_426/lpcxpresso/tools/bin/../lib/gcc/arm-none-eabi/4.9.3/../../../../arm-none-eabi/lib/libcr_c.a(initio.o)
 .comment       0x00000000       0x71 /usr/local/lpcxpresso_7.8.0_426/lpcxpresso/tools/bin/../lib/gcc/arm-none-eabi/4.9.3/../../../../arm-none-eabi/lib/libcr_c.a(raise.o)
 .comment       0x00000000       0x71 /usr/local/lpcxpresso_7.8.0_426/lpcxpresso/tools/bin/../lib/gcc/arm-none-eabi/4.9.3/../../../../arm-none-eabi/lib/libcr_c.a(setvbuf.o)
 .comment       0x00000000       0x71 /usr/local/lpcxpresso_7.8.0_426/lpcxpresso/tools/bin/../lib/gcc/arm-none-eabi/4.9.3/../../../../arm-none-eabi/lib/libcr_c.a(_cr_check_heap.o)
 .comment       0x00000000       0x71 /usr/local/lpcxpresso_7.8.0_426/lpcxpresso/tools/bin/../lib/gcc/arm-none-eabi/4.9.3/../../../../arm-none-eabi/lib/libcr_c.a(_fdopen.o)
 .comment       0x00000000       0x71 /usr/local/lpcxpresso_7.8.0_426/lpcxpresso/tools/bin/../lib/gcc/arm-none-eabi/4.9.3/../../../../arm-none-eabi/lib/libcr_c.a(fclose.o)
 .comment       0x00000000       0x71 /usr/local/lpcxpresso_7.8.0_426/lpcxpresso/tools/bin/../lib/gcc/arm-none-eabi/4.9.3/../../../../arm-none-eabi/lib/libcr_c.a(fflush.o)
 .comment       0x00000000       0x71 /usr/local/lpcxpresso_7.8.0_426/lpcxpresso/tools/bin/../lib/gcc/arm-none-eabi/4.9.3/../../../../arm-none-eabi/lib/libcr_c.a(remove.o)
 .comment       0x00000000       0x71 /usr/local/lpcxpresso_7.8.0_426/lpcxpresso/tools/bin/../lib/gcc/arm-none-eabi/4.9.3/../../../../arm-none-eabi/lib/libcr_c.a(_do_fflush.o)
 .comment       0x00000000       0x71 /usr/local/lpcxpresso_7.8.0_426/lpcxpresso/tools/bin/../lib/gcc/arm-none-eabi/4.9.3/libcr_eabihelpers.a(double.o)
 .comment       0x00000000       0x71 /usr/local/lpcxpresso_7.8.0_426/lpcxpresso/tools/bin/../lib/gcc/arm-none-eabi/4.9.3/libcr_eabihelpers.a(float.o)
 .comment       0x00000000       0x71 /usr/local/lpcxpresso_7.8.0_426/lpcxpresso/tools/bin/../lib/gcc/arm-none-eabi/4.9.3/libcr_eabihelpers.a(rtlib.o)
 .comment       0x00000000       0x71 /usr/local/lpcxpresso_7.8.0_426/lpcxpresso/tools/bin/../lib/gcc/arm-none-eabi/4.9.3/../../../../arm-none-eabi/lib/libcr_nohost.a(__sys_appexit.o)
 .comment       0x00000000       0x71 /usr/local/lpcxpresso_7.8.0_426/lpcxpresso/tools/bin/../lib/gcc/arm-none-eabi/4.9.3/../../../../arm-none-eabi/lib/libcr_nohost.a(__sys_close.o)
 .comment       0x00000000       0x71 /usr/local/lpcxpresso_7.8.0_426/lpcxpresso/tools/bin/../lib/gcc/arm-none-eabi/4.9.3/../../../../arm-none-eabi/lib/libcr_nohost.a(__sys_flen.o)
 .comment       0x00000000       0x71 /usr/local/lpcxpresso_7.8.0_426/lpcxpresso/tools/bin/../lib/gcc/arm-none-eabi/4.9.3/../../../../arm-none-eabi/lib/libcr_nohost.a(__sys_istty.o)
 .comment       0x00000000       0x71 /usr/local/lpcxpresso_7.8.0_426/lpcxpresso/tools/bin/../lib/gcc/arm-none-eabi/4.9.3/../../../../arm-none-eabi/lib/libcr_nohost.a(__sys_read.o)
 .comment       0x00000000       0x71 /usr/local/lpcxpresso_7.8.0_426/lpcxpresso/tools/bin/../lib/gcc/arm-none-eabi/4.9.3/../../../../arm-none-eabi/lib/libcr_nohost.a(__sys_readc.o)
 .comment       0x00000000       0x71 /usr/local/lpcxpresso_7.8.0_426/lpcxpresso/tools/bin/../lib/gcc/arm-none-eabi/4.9.3/../../../../arm-none-eabi/lib/libcr_nohost.a(__sys_remove.o)
 .comment       0x00000000       0x71 /usr/local/lpcxpresso_7.8.0_426/lpcxpresso/tools/bin/../lib/gcc/arm-none-eabi/4.9.3/../../../../arm-none-eabi/lib/libcr_nohost.a(__sys_rename.o)
 .comment       0x00000000       0x71 /usr/local/lpcxpresso_7.8.0_426/lpcxpresso/tools/bin/../lib/gcc/arm-none-eabi/4.9.3/../../../../arm-none-eabi/lib/libcr_nohost.a(__sys_seek.o)
 .comment       0x00000000       0x71 /usr/local/lpcxpresso_7.8.0_426/lpcxpresso/tools/bin/../lib/gcc/arm-none-eabi/4.9.3/../../../../arm-none-eabi/lib/libcr_nohost.a(__sys_tmpnam.o)
 .comment       0x00000000       0x71 /usr/local/lpcxpresso_7.8.0_426/lpcxpresso/tools/bin/../lib/gcc/arm-none-eabi/4.9.3/../../../../arm-none-eabi/lib/libcr_nohost.a(__sys_write.o)

.ARM.attributes
                0x00000000       0x2e
 .ARM.attributes
                0x00000000       0x30 ./src/Anybus.o
 .ARM.attributes
                0x00000030       0x30 ./src/I2C_Master.o
 .ARM.attributes
                0x00000060       0x30 ./src/az4186_can.o
 .ARM.attributes
                0x00000090       0x30 ./src/az4186_dac.o
 .ARM.attributes
                0x000000c0       0x30 ./src/az4186_eeprom_24c04.o
 .ARM.attributes
                0x000000f0       0x30 ./src/az4186_emc.o
 .ARM.attributes
                0x00000120       0x30 ./src/az4186_files.o
 .ARM.attributes
                0x00000150       0x30 ./src/az4186_initHw.o
 .ARM.attributes
                0x00000180       0x30 ./src/az4186_program_codes.o
 .ARM.attributes
                0x000001b0       0x30 ./src/az4186_temperature_compensation.o
 .ARM.attributes
                0x000001e0       0x30 ./src/az4186_window_temperature_compensation.o
 .ARM.attributes
                0x00000210       0x30 ./src/codelist.o
 .ARM.attributes
                0x00000240       0x30 ./src/crp.o
 .ARM.attributes
                0x00000270       0x30 ./src/diskio.o
 .ARM.attributes
                0x000002a0       0x30 ./src/dma.o
 .ARM.attributes
                0x000002d0       0x30 ./src/fat_time.o
 .ARM.attributes
                0x00000300       0x30 ./src/file_list.o
 .ARM.attributes
                0x00000330       0x30 ./src/gui.o
 .ARM.attributes
                0x00000360       0x30 ./src/i2c.o
 .ARM.attributes
                0x00000390       0x30 ./src/inverse_v1.o
 .ARM.attributes
                0x000003c0       0x30 ./src/lcd.o
 .ARM.attributes
                0x000003f0       0x30 ./src/main.o
 .ARM.attributes
                0x00000420       0x30 ./src/mci.o
 .ARM.attributes
                0x00000450       0x30 ./src/params.o
 .ARM.attributes
                0x00000480       0x30 ./src/popup.o
 .ARM.attributes
                0x000004b0       0x30 ./src/rtcDS3231_newer.o
 .ARM.attributes
                0x000004e0       0x30 ./src/spi.o
 .ARM.attributes
                0x00000510       0x30 ./src/spidbg.o
 .ARM.attributes
                0x00000540       0x30 ./src/spiglb.o
 .ARM.attributes
                0x00000570       0x30 ./src/spimis.o
 .ARM.attributes
                0x000005a0       0x30 ./src/spiutils.o
 .ARM.attributes
                0x000005d0       0x30 ./src/spiwin2.o
 .ARM.attributes
                0x00000600       0x30 ./src/target.o
 .ARM.attributes
                0x00000630       0x30 ./src/vdip.o
 .ARM.attributes
                0x00000660       0x30 ./src/xxtea.o
 .ARM.attributes
                0x00000690       0x30 ./ff9/src/option/ccsbcs.o
 .ARM.attributes
                0x000006c0       0x30 ./ff9/src/option/syscall.o
 .ARM.attributes
                0x000006f0       0x30 ./ff9/src/ff.o
 .ARM.attributes
                0x00000720       0x30 ./CANopen_stack/LPC2388/CO_driver.o
 .ARM.attributes
                0x00000750       0x30 ./CANopen_stack/LPC2388/co_od.o
 .ARM.attributes
                0x00000780       0x30 ./CANopen_stack/CANopen.o
 .ARM.attributes
                0x000007b0       0x30 ./CANopen_stack/CO_Emergency.o
 .ARM.attributes
                0x000007e0       0x30 ./CANopen_stack/CO_HBconsumer.o
 .ARM.attributes
                0x00000810       0x30 ./CANopen_stack/CO_NMT_Heartbeat.o
 .ARM.attributes
                0x00000840       0x30 ./CANopen_stack/CO_PDO.o
 .ARM.attributes
                0x00000870       0x30 ./CANopen_stack/CO_SDO.o
 .ARM.attributes
                0x000008a0       0x30 ./CANopen_stack/CO_SDOmaster.o
 .ARM.attributes
                0x000008d0       0x30 ./CANopen_stack/CO_SYNC.o
 .ARM.attributes
                0x00000900       0x30 /usr/local/lpcxpresso_7.8.0_426/lpcxpresso/tools/bin/../lib/gcc/arm-none-eabi/4.9.3/../../../../arm-none-eabi/lib/libcr_c.a(memcpy.o)
 .ARM.attributes
                0x00000930       0x30 /usr/local/lpcxpresso_7.8.0_426/lpcxpresso/tools/bin/../lib/gcc/arm-none-eabi/4.9.3/../../../../arm-none-eabi/lib/libcr_c.a(memset.o)
 .ARM.attributes
                0x00000960       0x30 /usr/local/lpcxpresso_7.8.0_426/lpcxpresso/tools/bin/../lib/gcc/arm-none-eabi/4.9.3/../../../../arm-none-eabi/lib/libcr_c.a(alloc.o)
 .ARM.attributes
                0x00000990       0x30 /usr/local/lpcxpresso_7.8.0_426/lpcxpresso/tools/bin/../lib/gcc/arm-none-eabi/4.9.3/../../../../arm-none-eabi/lib/libcr_c.a(ctype.o)
 .ARM.attributes
                0x000009c0       0x30 /usr/local/lpcxpresso_7.8.0_426/lpcxpresso/tools/bin/../lib/gcc/arm-none-eabi/4.9.3/../../../../arm-none-eabi/lib/libcr_c.a(fabs.o)
 .ARM.attributes
                0x000009f0       0x30 /usr/local/lpcxpresso_7.8.0_426/lpcxpresso/tools/bin/../lib/gcc/arm-none-eabi/4.9.3/../../../../arm-none-eabi/lib/libcr_c.a(fpprintf.o)
 .ARM.attributes
                0x00000a20       0x30 /usr/local/lpcxpresso_7.8.0_426/lpcxpresso/tools/bin/../lib/gcc/arm-none-eabi/4.9.3/../../../../arm-none-eabi/lib/libcr_c.a(memcmp.o)
 .ARM.attributes
                0x00000a50       0x30 /usr/local/lpcxpresso_7.8.0_426/lpcxpresso/tools/bin/../lib/gcc/arm-none-eabi/4.9.3/../../../../arm-none-eabi/lib/libcr_c.a(printf.o)
 .ARM.attributes
                0x00000a80       0x30 /usr/local/lpcxpresso_7.8.0_426/lpcxpresso/tools/bin/../lib/gcc/arm-none-eabi/4.9.3/../../../../arm-none-eabi/lib/libcr_c.a(scanf.o)
 .ARM.attributes
                0x00000ab0       0x30 /usr/local/lpcxpresso_7.8.0_426/lpcxpresso/tools/bin/../lib/gcc/arm-none-eabi/4.9.3/../../../../arm-none-eabi/lib/libcr_c.a(stdio.o)
 .ARM.attributes
                0x00000ae0       0x30 /usr/local/lpcxpresso_7.8.0_426/lpcxpresso/tools/bin/../lib/gcc/arm-none-eabi/4.9.3/../../../../arm-none-eabi/lib/libcr_c.a(stdlib.o)
 .ARM.attributes
                0x00000b10       0x30 /usr/local/lpcxpresso_7.8.0_426/lpcxpresso/tools/bin/../lib/gcc/arm-none-eabi/4.9.3/../../../../arm-none-eabi/lib/libcr_c.a(strcat.o)
 .ARM.attributes
                0x00000b40       0x30 /usr/local/lpcxpresso_7.8.0_426/lpcxpresso/tools/bin/../lib/gcc/arm-none-eabi/4.9.3/../../../../arm-none-eabi/lib/libcr_c.a(strchr.o)
 .ARM.attributes
                0x00000b70       0x30 /usr/local/lpcxpresso_7.8.0_426/lpcxpresso/tools/bin/../lib/gcc/arm-none-eabi/4.9.3/../../../../arm-none-eabi/lib/libcr_c.a(strcmp.o)
 .ARM.attributes
                0x00000ba0       0x30 /usr/local/lpcxpresso_7.8.0_426/lpcxpresso/tools/bin/../lib/gcc/arm-none-eabi/4.9.3/../../../../arm-none-eabi/lib/libcr_c.a(strcpy.o)
 .ARM.attributes
                0x00000bd0       0x30 /usr/local/lpcxpresso_7.8.0_426/lpcxpresso/tools/bin/../lib/gcc/arm-none-eabi/4.9.3/../../../../arm-none-eabi/lib/libcr_c.a(strlen.o)
 .ARM.attributes
                0x00000c00       0x30 /usr/local/lpcxpresso_7.8.0_426/lpcxpresso/tools/bin/../lib/gcc/arm-none-eabi/4.9.3/../../../../arm-none-eabi/lib/libcr_c.a(strncat.o)
 .ARM.attributes
                0x00000c30       0x30 /usr/local/lpcxpresso_7.8.0_426/lpcxpresso/tools/bin/../lib/gcc/arm-none-eabi/4.9.3/../../../../arm-none-eabi/lib/libcr_c.a(strncmp.o)
 .ARM.attributes
                0x00000c60       0x30 /usr/local/lpcxpresso_7.8.0_426/lpcxpresso/tools/bin/../lib/gcc/arm-none-eabi/4.9.3/../../../../arm-none-eabi/lib/libcr_c.a(strncpy.o)
 .ARM.attributes
                0x00000c90       0x30 /usr/local/lpcxpresso_7.8.0_426/lpcxpresso/tools/bin/../lib/gcc/arm-none-eabi/4.9.3/../../../../arm-none-eabi/lib/libcr_c.a(strstr.o)
 .ARM.attributes
                0x00000cc0       0x30 /usr/local/lpcxpresso_7.8.0_426/lpcxpresso/tools/bin/../lib/gcc/arm-none-eabi/4.9.3/../../../../arm-none-eabi/lib/libcr_c.a(ungetc.o)
 .ARM.attributes
                0x00000cf0       0x30 /usr/local/lpcxpresso_7.8.0_426/lpcxpresso/tools/bin/../lib/gcc/arm-none-eabi/4.9.3/../../../../arm-none-eabi/lib/libcr_c.a(__fillbuf.o)
 .ARM.attributes
                0x00000d20       0x30 /usr/local/lpcxpresso_7.8.0_426/lpcxpresso/tools/bin/../lib/gcc/arm-none-eabi/4.9.3/../../../../arm-none-eabi/lib/libcr_c.a(__init_alloc.o)
 .ARM.attributes
                0x00000d50       0x30 /usr/local/lpcxpresso_7.8.0_426/lpcxpresso/tools/bin/../lib/gcc/arm-none-eabi/4.9.3/../../../../arm-none-eabi/lib/libcr_c.a(_cr_sbrk.o)
 .ARM.attributes
                0x00000d80       0x30 /usr/local/lpcxpresso_7.8.0_426/lpcxpresso/tools/bin/../lib/gcc/arm-none-eabi/4.9.3/../../../../arm-none-eabi/lib/libcr_c.a(_deferredlazyseek.o)
 .ARM.attributes
                0x00000db0       0x30 /usr/local/lpcxpresso_7.8.0_426/lpcxpresso/tools/bin/../lib/gcc/arm-none-eabi/4.9.3/../../../../arm-none-eabi/lib/libcr_c.a(_fflush.o)
 .ARM.attributes
                0x00000de0       0x30 /usr/local/lpcxpresso_7.8.0_426/lpcxpresso/tools/bin/../lib/gcc/arm-none-eabi/4.9.3/../../../../arm-none-eabi/lib/libcr_c.a(_frexpl.o)
 .ARM.attributes
                0x00000e10       0x30 /usr/local/lpcxpresso_7.8.0_426/lpcxpresso/tools/bin/../lib/gcc/arm-none-eabi/4.9.3/../../../../arm-none-eabi/lib/libcr_c.a(_hugeval.o)
 .ARM.attributes
                0x00000e40       0x30 /usr/local/lpcxpresso_7.8.0_426/lpcxpresso/tools/bin/../lib/gcc/arm-none-eabi/4.9.3/../../../../arm-none-eabi/lib/libcr_c.a(_ldexpl.o)
 .ARM.attributes
                0x00000e70       0x30 /usr/local/lpcxpresso_7.8.0_426/lpcxpresso/tools/bin/../lib/gcc/arm-none-eabi/4.9.3/../../../../arm-none-eabi/lib/libcr_c.a(_writebuf.o)
 .ARM.attributes
                0x00000ea0       0x30 /usr/local/lpcxpresso_7.8.0_426/lpcxpresso/tools/bin/../lib/gcc/arm-none-eabi/4.9.3/../../../../arm-none-eabi/lib/libcr_c.a(errno.o)
 .ARM.attributes
                0x00000ed0       0x30 /usr/local/lpcxpresso_7.8.0_426/lpcxpresso/tools/bin/../lib/gcc/arm-none-eabi/4.9.3/../../../../arm-none-eabi/lib/libcr_c.a(fseek.o)
 .ARM.attributes
                0x00000f00       0x30 /usr/local/lpcxpresso_7.8.0_426/lpcxpresso/tools/bin/../lib/gcc/arm-none-eabi/4.9.3/../../../../arm-none-eabi/lib/libcr_c.a(ftell.o)
 .ARM.attributes
                0x00000f30       0x30 /usr/local/lpcxpresso_7.8.0_426/lpcxpresso/tools/bin/../lib/gcc/arm-none-eabi/4.9.3/../../../../arm-none-eabi/lib/libcr_c.a(initio.o)
 .ARM.attributes
                0x00000f60       0x30 /usr/local/lpcxpresso_7.8.0_426/lpcxpresso/tools/bin/../lib/gcc/arm-none-eabi/4.9.3/../../../../arm-none-eabi/lib/libcr_c.a(raise.o)
 .ARM.attributes
                0x00000f90       0x30 /usr/local/lpcxpresso_7.8.0_426/lpcxpresso/tools/bin/../lib/gcc/arm-none-eabi/4.9.3/../../../../arm-none-eabi/lib/libcr_c.a(setvbuf.o)
 .ARM.attributes
                0x00000fc0       0x30 /usr/local/lpcxpresso_7.8.0_426/lpcxpresso/tools/bin/../lib/gcc/arm-none-eabi/4.9.3/../../../../arm-none-eabi/lib/libcr_c.a(_cr_check_heap.o)
 .ARM.attributes
                0x00000ff0       0x30 /usr/local/lpcxpresso_7.8.0_426/lpcxpresso/tools/bin/../lib/gcc/arm-none-eabi/4.9.3/../../../../arm-none-eabi/lib/libcr_c.a(_fdopen.o)
 .ARM.attributes
                0x00001020       0x30 /usr/local/lpcxpresso_7.8.0_426/lpcxpresso/tools/bin/../lib/gcc/arm-none-eabi/4.9.3/../../../../arm-none-eabi/lib/libcr_c.a(fclose.o)
 .ARM.attributes
                0x00001050       0x30 /usr/local/lpcxpresso_7.8.0_426/lpcxpresso/tools/bin/../lib/gcc/arm-none-eabi/4.9.3/../../../../arm-none-eabi/lib/libcr_c.a(fflush.o)
 .ARM.attributes
                0x00001080       0x30 /usr/local/lpcxpresso_7.8.0_426/lpcxpresso/tools/bin/../lib/gcc/arm-none-eabi/4.9.3/../../../../arm-none-eabi/lib/libcr_c.a(remove.o)
 .ARM.attributes
                0x000010b0       0x30 /usr/local/lpcxpresso_7.8.0_426/lpcxpresso/tools/bin/../lib/gcc/arm-none-eabi/4.9.3/../../../../arm-none-eabi/lib/libcr_c.a(_do_fflush.o)
 .ARM.attributes
                0x000010e0       0x30 /usr/local/lpcxpresso_7.8.0_426/lpcxpresso/tools/bin/../lib/gcc/arm-none-eabi/4.9.3/libcr_eabihelpers.a(double.o)
 .ARM.attributes
                0x00001110       0x30 /usr/local/lpcxpresso_7.8.0_426/lpcxpresso/tools/bin/../lib/gcc/arm-none-eabi/4.9.3/libcr_eabihelpers.a(float.o)
 .ARM.attributes
                0x00001140       0x20 /usr/local/lpcxpresso_7.8.0_426/lpcxpresso/tools/bin/../lib/gcc/arm-none-eabi/4.9.3/libcr_eabihelpers.a(helpers.o)
 .ARM.attributes
                0x00001160       0x30 /usr/local/lpcxpresso_7.8.0_426/lpcxpresso/tools/bin/../lib/gcc/arm-none-eabi/4.9.3/libcr_eabihelpers.a(rtlib.o)
 .ARM.attributes
                0x00001190       0x30 /usr/local/lpcxpresso_7.8.0_426/lpcxpresso/tools/bin/../lib/gcc/arm-none-eabi/4.9.3/../../../../arm-none-eabi/lib/libcr_nohost.a(__sys_appexit.o)
 .ARM.attributes
                0x000011c0       0x30 /usr/local/lpcxpresso_7.8.0_426/lpcxpresso/tools/bin/../lib/gcc/arm-none-eabi/4.9.3/../../../../arm-none-eabi/lib/libcr_nohost.a(__sys_close.o)
 .ARM.attributes
                0x000011f0       0x30 /usr/local/lpcxpresso_7.8.0_426/lpcxpresso/tools/bin/../lib/gcc/arm-none-eabi/4.9.3/../../../../arm-none-eabi/lib/libcr_nohost.a(__sys_flen.o)
 .ARM.attributes
                0x00001220       0x30 /usr/local/lpcxpresso_7.8.0_426/lpcxpresso/tools/bin/../lib/gcc/arm-none-eabi/4.9.3/../../../../arm-none-eabi/lib/libcr_nohost.a(__sys_istty.o)
 .ARM.attributes
                0x00001250       0x30 /usr/local/lpcxpresso_7.8.0_426/lpcxpresso/tools/bin/../lib/gcc/arm-none-eabi/4.9.3/../../../../arm-none-eabi/lib/libcr_nohost.a(__sys_read.o)
 .ARM.attributes
                0x00001280       0x30 /usr/local/lpcxpresso_7.8.0_426/lpcxpresso/tools/bin/../lib/gcc/arm-none-eabi/4.9.3/../../../../arm-none-eabi/lib/libcr_nohost.a(__sys_readc.o)
 .ARM.attributes
                0x000012b0       0x30 /usr/local/lpcxpresso_7.8.0_426/lpcxpresso/tools/bin/../lib/gcc/arm-none-eabi/4.9.3/../../../../arm-none-eabi/lib/libcr_nohost.a(__sys_remove.o)
 .ARM.attributes
                0x000012e0       0x30 /usr/local/lpcxpresso_7.8.0_426/lpcxpresso/tools/bin/../lib/gcc/arm-none-eabi/4.9.3/../../../../arm-none-eabi/lib/libcr_nohost.a(__sys_rename.o)
 .ARM.attributes
                0x00001310       0x30 /usr/local/lpcxpresso_7.8.0_426/lpcxpresso/tools/bin/../lib/gcc/arm-none-eabi/4.9.3/../../../../arm-none-eabi/lib/libcr_nohost.a(__sys_seek.o)
 .ARM.attributes
                0x00001340       0x30 /usr/local/lpcxpresso_7.8.0_426/lpcxpresso/tools/bin/../lib/gcc/arm-none-eabi/4.9.3/../../../../arm-none-eabi/lib/libcr_nohost.a(__sys_tmpnam.o)
 .ARM.attributes
                0x00001370       0x30 /usr/local/lpcxpresso_7.8.0_426/lpcxpresso/tools/bin/../lib/gcc/arm-none-eabi/4.9.3/../../../../arm-none-eabi/lib/libcr_nohost.a(__sys_write.o)

.debug_frame    0x00000000     0x6644
 .debug_frame   0x00000000      0x658 ./src/Anybus.o
 .debug_frame   0x00000658       0xc0 ./src/I2C_Master.o
 .debug_frame   0x00000718      0x3d0 ./src/az4186_can.o
 .debug_frame   0x00000ae8       0x68 ./src/az4186_dac.o
 .debug_frame   0x00000b50      0x2e0 ./src/az4186_eeprom_24c04.o
 .debug_frame   0x00000e30       0x88 ./src/az4186_emc.o
 .debug_frame   0x00000eb8      0x328 ./src/az4186_files.o
 .debug_frame   0x000011e0       0x94 ./src/az4186_initHw.o
 .debug_frame   0x00001274      0x29c ./src/az4186_program_codes.o
 .debug_frame   0x00001510      0x190 ./src/az4186_temperature_compensation.o
 .debug_frame   0x000016a0       0x78 ./src/az4186_window_temperature_compensation.o
 .debug_frame   0x00001718       0xe8 ./src/codelist.o
 .debug_frame   0x00001800      0x134 ./src/diskio.o
 .debug_frame   0x00001934       0x40 ./src/dma.o
 .debug_frame   0x00001974       0x2c ./src/fat_time.o
 .debug_frame   0x000019a0      0x294 ./src/file_list.o
 .debug_frame   0x00001c34      0x63c ./src/gui.o
 .debug_frame   0x00002270      0x15c ./src/i2c.o
 .debug_frame   0x000023cc      0x154 ./src/inverse_v1.o
 .debug_frame   0x00002520      0x2b8 ./src/lcd.o
 .debug_frame   0x000027d8       0xb4 ./src/main.o
 .debug_frame   0x0000288c      0x4c8 ./src/mci.o
 .debug_frame   0x00002d54      0x6c0 ./src/params.o
 .debug_frame   0x00003414      0x15c ./src/popup.o
 .debug_frame   0x00003570      0x128 ./src/rtcDS3231_newer.o
 .debug_frame   0x00003698      0x7a4 ./src/spi.o
 .debug_frame   0x00003e3c      0x428 ./src/spidbg.o
 .debug_frame   0x00004264      0x390 ./src/spimis.o
 .debug_frame   0x000045f4      0x550 ./src/spiutils.o
 .debug_frame   0x00004b44      0x47c ./src/spiwin2.o
 .debug_frame   0x00004fc0       0x5c ./src/target.o
 .debug_frame   0x0000501c      0x160 ./src/vdip.o
 .debug_frame   0x0000517c       0x70 ./src/xxtea.o
 .debug_frame   0x000051ec       0x30 ./ff9/src/option/ccsbcs.o
 .debug_frame   0x0000521c      0x6f8 ./ff9/src/ff.o
 .debug_frame   0x00005914      0x174 ./CANopen_stack/LPC2388/CO_driver.o
 .debug_frame   0x00005a88       0x98 ./CANopen_stack/LPC2388/co_od.o
 .debug_frame   0x00005b20       0xe8 ./CANopen_stack/CANopen.o
 .debug_frame   0x00005c08      0x140 ./CANopen_stack/CO_Emergency.o
 .debug_frame   0x00005d48       0xf4 ./CANopen_stack/CO_HBconsumer.o
 .debug_frame   0x00005e3c       0xbc ./CANopen_stack/CO_NMT_Heartbeat.o
 .debug_frame   0x00005ef8      0x2f4 ./CANopen_stack/CO_PDO.o
 .debug_frame   0x000061ec      0x198 ./CANopen_stack/CO_SDO.o
 .debug_frame   0x00006384      0x184 ./CANopen_stack/CO_SDOmaster.o
 .debug_frame   0x00006508      0x13c ./CANopen_stack/CO_SYNC.o
